(dp1
S''
((((i__main__
Link
(dp2
S'href'
p3
S'/about/'
p4
sS'link_text'
p5
S'About'
p6
sS'selected'
p7
I00
sS'title'
p8
S'About The Europython Conference'
p9
sb(tt((i__main__
Link
(dp10
g3
S'/talks/'
p11
sg5
S'Talks'
p12
sg7
I00
sg8
S'Submitting and Schedules'
p13
sb(tttS'Europython 2009'
Ntp14
sS'about/success/st-andrews'
p15
(NS'Python Success Stories'
Ntp16
sS'doc/topics/database/books'
p17
(NS'Database Books'
S'Database Books'
p18
tp19
sS'community/sigs/retired/objc-sig'
p20
((((i__main__
Link
(dp21
S'href'
p22
S'/community/sigs/retired/objc-sig/status/'
p23
sS'link_text'
p24
S'Status'
p25
sS'selected'
p26
I00
sS'title'
p27
Nsb(tttS'SIG on Python bindings for Objective-C/NeXTSTEP/OpenStep'
S'Objc SIG'
p28
tp29
sS'psf/press-release/pr20030923'
p30
(NS'Python Software Foundation: Press Release 23-Sep-2003'
Ntp31
sS'psf/wirexfer'
p32
(NS'Python Software Foundation: Wire Transfer Information'
Ntp33
sS'dev/peps/pep-0286'
p34
(NVPEP 286 -- Enhanced Argument Tuples
Ntp35
sS'dev/peps/pep-0287'
p36
(NVPEP 287 -- reStructuredText Docstring Format
Ntp37
sS'dev/peps/pep-0284'
p38
(NVPEP 284 -- Integer for-loops
Ntp39
sS'dev/peps/pep-0285'
p40
(NVPEP 285 -- Adding a bool type
Ntp41
sS'dev/peps/pep-0282'
p42
(NVPEP 282 -- A Logging System
Ntp43
sS'dev/peps/pep-0283'
p44
(NVPEP 283 -- Python 2.3 Release Schedule
Ntp45
sS'dev/peps/pep-0280'
p46
(NVPEP 280 -- Optimizing access to globals
Ntp47
sS'dev/peps/pep-0281'
p48
(NVPEP 281 -- Loop Counter Iteration with range and xrange
Ntp49
sS'download/releases/2.5.1/license'
p50
(NS'Python 2.5 license'
S'License'
p51
tp52
sS'download/releases/2.3.2/bugs'
p53
(NS'Bugs in Python 2.3.2'
S'Bugs'
p54
tp55
sS'dev/summary/2005-10-16_2005-10-31'
p56
(NS'python-dev Summary for 2005-10-16 through 2005-10-31'
Ntp57
sS'psf/records/board/minutes/2003-04-08'
p58
(NS'Python Software Foundation: Minutes of Board of Directors\n Meeting (April 8, 2003)'
Ntp59
sS'dev/peps/pep-0288'
p60
(NVPEP 288 -- Generators Attributes and Exceptions
Ntp61
sS'dev/peps/pep-0289'
p62
(NVPEP 289 -- Generator Expressions
Ntp63
sS'dev/summary/2005-05-16_2005-05-31'
p64
(NS'python-dev Summary for 2005-05-16 through 2005-05-31'
Ntp65
sS'dev/summary/2005-09-16_2005-09-30'
p66
(NS'python-dev Summary for 2005-09-16 through 2005-09-30'
Ntp67
sS'community/sigs/current/distutils-sig/sig_charter'
p68
(NS'Python Distutils-SIG: Charter'
S'SIG Charter'
p69
tp70
sS'dev/summary/2006-06-16_2006-06-30'
p71
(NS'python.org'
p72
Ntp73
sS'dev/summary/2002-08-16-2002-09-01'
p74
(NS'python-dev Summary for 2002-08-16 through 2002-09-01'
Ntp75
sS'dev/summary/2006-11-16_2006-11-30'
p76
(Ng72
Ntp77
sS'community/pycon'
p78
(NS'PyCon Home at python.org'
S'PyCon'
p79
tp80
sS'psf/mission'
p81
(NS'Mission'
S'Mission Statement'
p82
tp83
sS'dev/summary/2005-06-01_2005-06-15'
p84
(NS'python-dev Summary for 2005-06-01 through 2005-06-15'
Ntp85
sS'download/releases/2.3.4/rpms'
p86
(NS'Linux RPMs for Python 2.3.4'
S'Linux RPMS'
p87
tp88
sS'community/sigs/retired/pattern-sig/mission'
p89
(NS'PATTERN-SIG, SIG for Idioms, Patterns, and Frameworks in Python'
S'Mission'
p90
tp91
sS'psf/sponsorship'
p92
(NS'Sponsorship'
S'Sponsor Memberships'
p93
tp94
sS'download/mac'
p95
(NS'Python on the Macintosh'
S'Macintosh'
p96
tp97
sS'download/releases/2.2.1/rpms'
p98
(NS'Linux RPMs for Python 2.2.1'
S'Linux RPMS'
p99
tp100
sS'dev/peps/pep-0233'
p101
(NVPEP 233 -- Python Online Help
Ntp102
sS'dev/peps/pep-0232'
p103
(NVPEP 232 -- Function Attributes
Ntp104
sS'dev/peps/pep-0231'
p105
(NVPEP 231 -- __findattr__()
Ntp106
sS'dev/peps/pep-0230'
p107
(NVPEP 230 -- Warning Framework
Ntp108
sS'dev/peps/pep-0237'
p109
(NVPEP 237 -- Unifying Long Integers and Integers
Ntp110
sS'dev/peps/pep-0236'
p111
(NVPEP 236 -- Back to the __future__
Ntp112
sS'dev/peps/pep-0235'
p113
(NVPEP 235 -- Import on Case-Insensitive Platforms
Ntp114
sS'dev/peps/pep-0234'
p115
(NVPEP 234 -- Iterators
Ntp116
sS'dev/peps/pep-0239'
p117
(NVPEP 239 -- Adding a Rational Type to Python
Ntp118
sS'dev/peps/pep-0238'
p119
(NVPEP 238 -- Changing the Division Operator
Ntp120
sS'community/sigs/current/capi-sig'
p121
(NS'SIG for Supporting Use of the Python/C API'
Ntp122
sS'psf/records/board/minutes/2002-12-10'
p123
(NS'Python Software Foundation: Minutes of Board of Directors\n Meeting (December 10, 2002)'
Ntp124
sS'download/releases/2.3.3/rpms'
p125
(NS'Linux RPMs for Python 2.3.3'
S'Linux RPMS'
p126
tp127
sS'community/sigs/retired/types-sig/statictypes'
p128
(NS'Details on static typing in Python'
S'Static Types'
p129
tp130
sS'download/releases/2.3.2/license'
p131
(NS'Python 2.3.2 license'
S'License'
p132
tp133
sS'dev/summary/2004-04-01_2004-04-30'
p134
(NS'python-dev Summary for 2004-04-01 through 2004-04-30'
Ntp135
sS'community/sigs/retired/getopt-sig'
p136
((((i__main__
Link
(dp137
g22
S'/community/sigs/retired/getopt-sig/compare/'
p138
sg24
S'Compare'
p139
sg26
I00
sg27
Nsb(tttS'Python Getopt SIG'
S'Getopt SIG'
p140
tp141
sS'psf/records/board/minutes/2004-10-12'
p142
(NS'Python Software Foundation: Minutes of Board of Directors\n Meeting (October 12, 2004)'
Ntp143
sS'dev/summary/2002-10-13-2002-10-21'
p144
(NS'2002-10-13 -- 2002-10-21'
Ntp145
sS'psf/records/members/2002-07'
p146
(NS'Member meeting at OSCON'
Ntp147
sS'about/success/verity'
p148
(NS'Python Success Stories'
Ntp149
sS'psf/records/board/minutes/2002-11-12'
p150
(NS'Python Software Foundation: Minutes of Board of Directors\n Meeting (November 12, 2002)'
Ntp151
sS'dev/summary/2003-11-16_2003-11-30'
p152
(NS'python-dev Summary for 2003-11-16 through 2003-11-30'
Ntp153
sS'psf/records/members/2007-02-23/proxy'
p154
(Ng72
Ntp155
sS'doc/essays/cp4e'
p156
(NS'Computer Programming for Everybody'
Ntp157
sS'psf/records/board/minutes/2002-03-12'
p158
(NS'Python Software Foundation: Minutes of Board of Directors\n Meeting (Mar. 12, 2002)'
Ntp159
sS'download/releases/2.3.3/bugs'
p160
(NS'Bugs in Python 2.3.3'
S'Bugs'
p161
tp162
sS'about/accomodation'
p163
(NS'Accomodation'
S'Acommodation'
p164
tp165
sS'download'
p166
((((i__main__
Link
(dp167
g22
S'/download/releases/'
p168
sg24
S'Releases'
p169
sg26
I00
sg27
Nsb(tt((i__main__
Link
(dp170
g22
S'/download/windows/'
p171
sg24
S'Windows, DOS'
p172
sg26
I00
sg27
Nsb(tt((i__main__
Link
(dp173
g22
S'/download/mac/'
p174
sg24
g96
sg26
I00
sg27
Nsb(tt((i__main__
Link
(dp175
g22
S'/download/linux/'
p176
sg24
S'Linux'
p177
sg26
I00
sg27
Nsb(tt((i__main__
Link
(dp178
g22
S'/download/other/'
p179
sg24
S'Other'
p180
sg26
I00
sg27
Nsb(tt((i__main__
Link
(dp181
g22
S'/download/source/'
p182
sg24
S'Source'
p183
sg26
I00
sg27
Nsb(tt((i__main__
Link
(dp184
g22
S'/download/releases/3.0/'
p185
sg24
S'Python 3000'
p186
sg26
I00
sg27
Nsb(tt((i__main__
Link
(dp187
g22
S'/download/svn/'
p188
sg24
S'SVN Access'
p189
sg26
I00
sg27
Nsb(tt((i__main__
Link
(dp190
g22
S'/download/contributed/'
p191
sg24
S'Contributed Software'
p192
sg26
I00
sg27
Nsb(tttS'Download Python Software'
S'Download'
tp193
sS'psf/cooperations'
p194
(NS'Organizations Cooperating with the Python Software Foundation'
S'Cooperations'
p195
tp196
sS'doc/editors/emacs'
p197
(NS'Emacs Goodies'
S'Emacs'
p198
tp199
sS'download/releases/1.6.1/download'
p200
(NS'Download Python 1.6.1 Source'
S'Download Source'
p201
tp202
sS'psf/forms/sponsor-application'
p203
(NS'Python Software Foundation: Membership Application for Sponsor Member'
Ntp204
sS'psf/records/board/minutes/2005-11-08'
p205
(NS'Python Software Foundation: Minutes of Board of Directors Meeting, November 8, 2005'
Ntp206
sS'download/releases/2.3.5/bugs'
p207
(NS'Bugs in Python 2.3.5'
S'Bugs'
p208
tp209
sS'psf/records/board/minutes/2003-12-09'
p210
(NS'Python Software Foundation: Minutes of Board of Directors\n Meeting (December 9, 2003)'
Ntp211
sS'dev/peps/pep-0307'
p212
(NVPEP 307 -- Extensions to the pickle protocol
Ntp213
sS'dev/peps/pep-0306'
p214
(NVPEP 306 -- How to Change Python's Grammar
Ntp215
sS'dev/summary/2004-06-01_2004-06-15'
p216
(NS'python-dev Summary for 2004-06-01 through 2004-06-15'
Ntp217
sS'dev/peps/pep-0304'
p218
(NVPEP 304 -- Controlling Generation of Bytecode Files
Ntp219
sS'dev/peps/pep-0303'
p220
(NVPEP 303 -- Extend divmod() for Multiple Divisors
Ntp221
sS'dev/peps/pep-0302'
p222
(NVPEP 302 -- New Import Hooks
Ntp223
sS'dev/peps/pep-0301'
p224
(NVPEP 301 -- Package Index and Metadata for Distutils
Ntp225
sS'community/sigs/current/pythonmac-sig'
p226
(NS'Pythonmac-SIG - SIG on Python for the Apple Macintosh'
S'Pythonmac SIG'
p227
tp228
sS'community/workshops'
p229
(NS'Conferences and Workshops'
S'Python Conferences'
p230
tp231
sS'about/quotes'
p232
(NS'Quotes about Python'
S'Quotes'
tp233
sS'dev/peps/pep-0309'
p234
(NVPEP 309 -- Partial Function Application
Ntp235
sS'dev/peps/pep-0308'
p236
(NVPEP 308 -- Conditional Expressions
Ntp237
sS'dev/peps/pep-3113'
p238
(NVPEP 3113 -- Removal of Tuple Parameter Unpacking
Ntp239
sS'dev/peps/pep-3112'
p240
(NVPEP 3112 -- Bytes literals in Python 3000
Ntp241
sS'dev/peps/pep-0042'
p242
(NVPEP 42 -- Feature Requests
Ntp243
sS'dev/peps/pep-3110'
p244
(NVPEP 3110 -- Catching Exceptions in Python 3000
Ntp245
sS'dev/peps/pep-3117'
p246
(NVPEP 3117 -- Postfix type declarations
Ntp247
sS'dev/peps/pep-3116'
p248
(NVPEP 3116 -- New I/O
Ntp249
sS'download/releases/2.3.1/bugs'
p250
(NS'Bugs in Python 2.3.1'
S'Bugs'
p251
tp252
sS'dev/peps/pep-3114'
p253
(NVPEP 3114 -- Renaming iterator.next() to iterator.__next__()
Ntp254
sS'community/sigs/current/image-sig'
p255
((((i__main__
Link
(dp256
g22
S'/community/sigs/current/image-sig/status/'
p257
sg24
S'Status'
p258
sg26
I00
sg27
Nsb(tttS'Image-SIG - Image Processing with Python SIG'
S'Image SIG'
p259
tp260
sS'dev/peps/pep-3119'
p261
(NVPEP 3119 -- Introducing Abstract Base Classes
Ntp262
sS'dev/peps/pep-3118'
p263
(NVPEP 3118 -- Revising the buffer protocol
Ntp264
sS'doc/essays/cleanup'
p265
(NS'Proposed Improvements to Module Cleanup'
Ntp266
sS'download/other'
p267
(NS'Download Python for Other Platforms'
g180
tp268
sS'dev/summary/2005-08-01_2005-08-15'
p269
(NS'python-dev Summary for 2005-08-01 through 2005-08-15'
Ntp270
sS'community/lists'
p271
(NS'Python Mailing Lists, Newsgroups, and Web Forums'
S'Mailing Lists'
p272
tp273
sS'community/sigs/current/distutils-sig/doc/design'
p274
(NS'Python Distutils-SIG: Design Proposal'
Ntp275
sS'download/releases/2.5.1'
p276
((((i__main__
Link
(dp277
g22
S'/download/releases/2.5.1/NEWS.txt/'
p278
sg24
S'Release Notes'
p279
sg26
I00
sg27
Nsb(tt((i__main__
Link
(dp280
g22
S'/download/releases/2.5.1/bugs/'
p281
sg24
S'Bugs'
p282
sg26
I00
sg27
Nsb(tt((i__main__
Link
(dp283
g22
S'/download/releases/2.5.1/license/'
p284
sg24
g51
sg26
I00
sg27
Nsb(tt((i__main__
Link
(dp285
g22
S'/download/releases/2.5/msi/'
p286
sg24
S'Windows MSI Installer'
p287
sg26
I00
sg27
Nsb(tttS'Python 2.5.1 Release'
Ntp288
sS'download/releases/2.5.2'
p289
((((i__main__
Link
(dp290
g22
S'/download/releases/2.5.2/NEWS.txt/'
p291
sg24
S'Release Notes'
p292
sg26
I00
sg27
Nsb(tt((i__main__
Link
(dp293
g22
S'/download/releases/2.5.2/bugs/'
p294
sg24
S'Bugs'
p295
sg26
I00
sg27
Nsb(tt((i__main__
Link
(dp296
g22
S'/download/releases/2.5.2/license/'
p297
sg24
S'License'
p298
sg26
I00
sg27
Nsb(tt((i__main__
Link
(dp299
g22
S'/download/releases/2.5/msi/'
p300
sg24
S'Windows MSI Installer'
p301
sg26
I00
sg27
Nsb(tttS'Python 2.5.2 Release'
S'2.5.2'
p302
tp303
sS'dev/summary/2002-12-01_2002-12-15'
p304
(NS'python-dev Summary for 2002-12-01 through 2002-12-15'
Ntp305
sS'community/sigs/current/distutils-sig'
p306
((((i__main__
Link
(dp307
g22
S'/community/sigs/current/distutils-sig/list/'
p308
sg24
S'Mailing List'
p309
sg26
I00
sg27
Nsb(tt((i__main__
Link
(dp310
g22
S'/community/sigs/current/distutils-sig/sig_charter/'
p311
sg24
g69
sg26
I00
sg27
Nsb(tt((i__main__
Link
(dp312
g22
S'/community/sigs/current/distutils-sig/requirements/'
p313
sg24
S'Requirements'
p314
sg26
I00
sg27
Nsb(tttS'Python Distutils-SIG: Introduction'
S'Distutils SIG'
p315
tp316
sS'search'
p317
(NS'Search Python Resources'
Ntp318
sS'dev/peps/pep-0344'
p319
(NVPEP 344 -- Exception Chaining and Embedded Tracebacks
Ntp320
sS'download/releases/2.3/bugs'
p321
(NS'Bugs in Python 2.3'
S'Bugs'
p322
tp323
sS'download/releases/2.4.1/bugs'
p324
(NS'Python 2.4.1 - Bugs'
S'Bugs'
p325
tp326
sS'community/workshops/historic'
p327
(NS'Historic Python Conferences and Workshops'
Ntp328
sS'about/success'
p329
(NS'Python Success Stories'
S'Success Stories'
tp330
sS'community/sigs/retired/string-sig'
p331
(NS'String-SIG - SIG on Enhancement of Python String Processing'
S'String SIG'
p332
tp333
sS'doc/newstyle'
p334
(NS'New-style Classes'
S'New-Style Classes'
p335
tp336
sS'dev/summary/2006-07-16_2006-07-31'
p337
(Ng72
Ntp338
sS'download/releases/2.3.5/license'
p339
(NS'Python 2.3.5 license'
S'License'
p340
tp341
sS'download/releases/2.2.2/bugs'
p342
(NS'Incompatibilities between Python 2.1[.x] and 2.2[.x]'
S'Bugs'
p343
tp344
sS'dev/summary/2004-11-01_2004-11-15'
p345
(NS'python-dev Summary for 2004-11-01 through 2004-11-15'
Ntp346
sS'dev/culture'
p347
(NS'Python Culture'
S'Culture'
p348
tp349
sS'community/sigs/retired/thread-sig'
p350
(NS'Thread-SIG - SIG on Process Threading in Python'
S'Thread SIG'
p351
tp352
sS'dev/summary/2003-04-16_2003-04-30'
p353
(NS'python-dev Summary for 2003-04-16 through 2003-04-30'
Ntp354
sS'doc/editors/vim'
p355
(NS'Vim for Python'
S'Vi(m)'
p356
tp357
sS'community/sigs/current/doc-sig/otherlangs'
p358
(NS'Other Documentation Tools'
S'Other Languages'
p359
tp360
sS'community/awards/frank-willison/2006-martelli'
p361
(NS'A Journey to Python'
Ntp362
sS'doc/essays/styleguide'
p363
(NS'Python Style Guide'
Ntp364
sS'download/releases/2.4.3/bugs'
p365
(NS'Bugs in Python 2.4.3'
S'Bugs'
p366
tp367
sS'doc/2.4.4'
p368
((((i__main__
Link
(dp369
g22
S'http://docs.python.org/'
p370
sg24
S'Current Docs'
p371
sg26
I00
sg27
Nsb(tt((i__main__
Link
(dp372
g22
S'http://wiki.python.org/moin/BeginnersGuide'
p373
sg24
S"Beginner's Guide"
p374
sg26
I00
sg27
Nsb(tt((i__main__
Link
(dp375
g22
S'/doc/faq/'
p376
sg24
S'FAQs'
p377
sg26
I00
sg27
Nsb(tt((i__main__
Link
(dp378
g22
S'http://wiki.python.org/moin/'
p379
sg24
S'Wiki'
p380
sg26
I00
sg27
Nsb(tt((i__main__
Link
(dp381
g22
S'/doc/other/'
p382
sg24
S'Other doc resources'
p383
sg26
I00
sg27
Nsb(tt((i__main__
Link
(dp384
g22
S'/dev/peps/'
p385
sg24
S'PEP Index'
p386
sg26
I00
sg27
Nsb(tt((i__main__
Link
(dp387
g22
S'http://wiki.python.org/moin/PythonBooks'
p388
sg24
S'Book list'
p389
sg26
I00
sg27
Nsb(tt((i__main__
Link
(dp390
g22
S'/doc/topics/'
p391
sg24
S'Topic guides'
p392
sg26
I00
sg27
Nsb(tt((i__main__
Link
(dp393
g22
S'/doc/newstyle/'
p394
sg24
S'New-style classes'
p395
sg26
I00
sg27
Nsb(tt((i__main__
Link
(dp396
g22
S'http://docs.python.org/library/re.html'
p397
sg24
S'Regular expressions'
p398
sg26
I00
sg27
Nsb(tttS'Python 2.4.4 Documentation'
Ntp399
sS'community/sigs/current/edu-sig'
p400
(NS'EDU-SIG: Python in Education'
S'Edu SIG'
p401
tp402
sS'download/releases/2.6/license'
p403
(NS'Python 2.5 license'
S'License'
p404
tp405
sS'psf/trademarks'
p406
(NS'PSF Trademark Usage Policy'
S'Trademark Policy'
p407
tp408
sS'community/awards/psf-awards'
p409
(NS'PSF Community Awards'
S'PSF Community Awards'
p410
tp411
sS'doc/topics/database/other-db'
p412
(NS'Other Database Modules'
S'Other Database Modules'
p413
tp414
sS'download/releases'
p415
((((i__main__
Link
(dp416
g22
S'/download/releases/3.0/'
p417
sg24
S'3.0rc3'
p418
sg26
I00
sg27
Nsb(tt((i__main__
Link
(dp419
g22
S'/download/releases/2.6/'
p420
sg24
S'2.6'
p421
sg26
I00
sg27
Nsb(tt((i__main__
Link
(dp422
g22
S'/download/releases/2.5.2/'
p423
sg24
g302
sg26
I00
sg27
Nsb(tt((i__main__
Link
(dp424
g22
S'/download/releases/2.4.5/'
p425
sg24
S'2.4.5'
p426
sg26
I00
sg27
Nsb(tt((i__main__
Link
(dp427
g22
S'/download/releases/2.3.7/'
p428
sg24
S'2.3.7'
p429
sg26
I00
sg27
Nsb(tt((i__main__
Link
(dp430
g22
S'/download/releases/2.2.3/'
p431
sg24
S'2.2.3'
p432
sg26
I00
sg27
Nsb(tt((i__main__
Link
(dp433
g22
S'/download/releases/2.1.3/'
p434
sg24
S'2.1.3'
p435
sg26
I00
sg27
Nsb(tt((i__main__
Link
(dp436
g22
S'/download/releases/2.0.1/'
p437
sg24
S'2.0.1'
p438
sg26
I00
sg27
Nsb(tt((i__main__
Link
(dp439
g22
S'/download/releases/1.6.1/'
p440
sg24
S'1.6.1'
p441
sg26
I00
sg27
Nsb(tt((i__main__
Link
(dp442
g22
S'/download/releases/1.5/'
p443
sg24
S'1.5.2'
p444
sg26
I00
sg27
Nsb(tttS'Releases'
g169
tp445
sS'dev/summary/2002-09-01-2002-09-15'
p446
(NS'python-dev Summary for 2002-09-01 through 2002-09-15'
Ntp447
sS'dev/summary/2004-10-16_2004-10-31'
p448
(NS'python-dev Summary for 2004-10-16 through 2004-10-31'
Ntp449
sS'download/releases/2.3.2'
p450
((((i__main__
Link
(dp451
g22
S'/download/releases/2.3.2/NEWS.txt/'
p452
sg24
S'Release Notes'
p453
sg26
I00
sg27
Nsb(tt((i__main__
Link
(dp454
g22
S'/download/releases/2.3.2/bugs/'
p455
sg24
g54
sg26
I00
sg27
Nsb(tt((i__main__
Link
(dp456
g22
S'/download/releases/2.3.2/license/'
p457
sg24
g132
sg26
I00
sg27
Nsb(tt((i__main__
Link
(dp458
g22
S'/download/releases/2.3.2/rpms/'
p459
sg24
S'Linux RPMS'
p460
sg26
I00
sg27
Nsb(tttS'Python 2.3.2'
Ntp461
sS'download/releases/2.3.3'
p462
((((i__main__
Link
(dp463
g22
S'/download/releases/2.3.3/NEWS.txt/'
p464
sg24
S'Release Notes'
p465
sg26
I00
sg27
Nsb(tt((i__main__
Link
(dp466
g22
S'/download/releases/2.3.3/bugs/'
p467
sg24
g161
sg26
I00
sg27
Nsb(tt((i__main__
Link
(dp468
g22
S'/download/releases/2.3.3/license/'
p469
sg24
S'License'
p470
sg26
I00
sg27
Nsb(tt((i__main__
Link
(dp471
g22
S'/download/releases/2.3.3/rpms/'
p472
sg24
g126
sg26
I00
sg27
Nsb(tttS'Python 2.3.3'
Ntp473
sS'download/releases/2.3.1'
p474
((((i__main__
Link
(dp475
g22
S'/download/releases/2.3.1/NEWS.txt/'
p476
sg24
S'Release Notes'
p477
sg26
I00
sg27
Nsb(tt((i__main__
Link
(dp478
g22
S'/download/releases/2.3.1/ChangeLog.txt/'
p479
sg24
S'Change Log'
p480
sg26
I00
sg27
Nsb(tt((i__main__
Link
(dp481
g22
S'/download/releases/2.3.1/bugs/'
p482
sg24
g251
sg26
I00
sg27
Nsb(tt((i__main__
Link
(dp483
g22
S'/download/releases/2.3.1/license/'
p484
sg24
S'License'
p485
sg26
I00
sg27
Nsb(tt((i__main__
Link
(dp486
g22
S'/download/releases/2.3.1/rpms/'
p487
sg24
S'Linux RPMS'
p488
sg26
I00
sg27
Nsb(tttS'Python 2.3.1'
Ntp489
sS'download/releases/2.3.6'
p490
((((i__main__
Link
(dp491
g22
S'/download/releases/2.3.6/NEWS.txt/'
p492
sg24
S'Release Notes'
p493
sg26
I00
sg27
Nsb(tt((i__main__
Link
(dp494
g22
S'/download/releases/2.3.6/bugs/'
p495
sg24
S'Bugs'
p496
sg26
I00
sg27
Nsb(tt((i__main__
Link
(dp497
g22
S'/download/releases/2.3.6/license/'
p498
sg24
S'License'
p499
sg26
I00
sg27
Nsb(tttS'Python 2.3.6 Release'
Ntp500
sS'download/releases/2.3.7'
p501
((((i__main__
Link
(dp502
g22
S'/download/releases/2.3.7/NEWS.txt/'
p503
sg24
S'Release Notes'
p504
sg26
I00
sg27
Nsb(tt((i__main__
Link
(dp505
g22
S'/download/releases/2.3.7/bugs/'
p506
sg24
S'Bugs'
p507
sg26
I00
sg27
Nsb(tt((i__main__
Link
(dp508
g22
S'/download/releases/2.3.7/license/'
p509
sg24
S'License'
p510
sg26
I00
sg27
Nsb(tttS'Python 2.3.7 Release'
g429
tp511
sS'download/releases/2.3.4'
p512
((((i__main__
Link
(dp513
g22
S'/download/releases/2.3.4/NEWS.txt/'
p514
sg24
S'Release Notes'
p515
sg26
I00
sg27
Nsb(tt((i__main__
Link
(dp516
g22
S'/download/releases/2.3.4/bugs/'
p517
sg24
S'Bugs'
p518
sg26
I00
sg27
Nsb(tt((i__main__
Link
(dp519
g22
S'/download/releases/2.3.4/license/'
p520
sg24
S'License'
p521
sg26
I00
sg27
Nsb(tt((i__main__
Link
(dp522
g22
S'/download/releases/2.3.4/rpms/'
p523
sg24
g87
sg26
I00
sg27
Nsb(tttS'Python 2.3.4'
Ntp524
sS'download/releases/2.3.5'
p525
((((i__main__
Link
(dp526
g22
S'/download/releases/2.3.5/notes/'
p527
sg24
S'Release Notes'
p528
sg26
I00
sg27
Nsb(tt((i__main__
Link
(dp529
g22
S'/download/releases/2.3.5/bugs/'
p530
sg24
g208
sg26
I00
sg27
Nsb(tt((i__main__
Link
(dp531
g22
S'/download/releases/2.3.5/license/'
p532
sg24
g340
sg26
I00
sg27
Nsb(tt((i__main__
Link
(dp533
g22
S'/download/releases/2.3.5/rpms/'
p534
sg24
S'Linux RPMSs'
p535
sg26
I00
sg27
Nsb(tttS'Python 2.3.5'
Ntp536
sS'community/sigs/current/image-sig/status'
p537
(NS'Image Processing with Python SIG Status'
g258
tp538
sS'community/sigs/retired/locator-sig'
p539
((((i__main__
Link
(dp540
g22
S'/community/sigs/retired/locator-sig/mission/'
p541
sg24
S'Mission'
p542
sg26
I00
sg27
Nsb(tttS'Python Locator Special Interest Group'
S'Locator SIG'
p543
tp544
sS'doc/faq/it/windows'
p545
(NS'Python Windows FAQ'
Ntp546
sS'download/releases/2.3/license'
p547
(NS'Python 2.3 license'
S'License'
p548
tp549
sS'dev/summary/2000-12-1'
p550
(NS'Python-dev summary: 2000-12-01 to 2000-12-15'
Ntp551
sS'psf/records/board/minutes/2005-02-08'
p552
(NS'Python Software Foundation: Minutes of Board of Directors\n Meeting (February 8, 2005)'
Ntp553
sS'dev/summary/2000-12-2'
p554
(NS'Python-dev summary: 2000-12-16 to 2000-12-31'
Ntp555
sS'dev/summary/2001-02-1'
p556
(NS'Python-dev summary: 2001-02-01 to 2001-02-14'
Ntp557
sS'dev/summary/2001-02-2'
p558
(NS'Python-dev summary: 2001-02-15 to 2001-02-28'
Ntp559
sS'dev/peps/pep-0327'
p560
(NVPEP 327 -- Decimal Data Type
Ntp561
sS'psf/records/board/minutes/2006-10-09'
p562
(NS'Python Software Foundation Board Meeting Minutes 2006-10-09'
Ntp563
sS'download/releases/1.6/license_faq'
p564
(NS'Python 1.6 License FAQ'
Ntp565
sS'dev/pydotorg/translations'
p566
(Ng72
S'Translations'
p567
tp568
sS'download/unpacking'
p569
(NS'Unpacking Archives'
Ntp570
sS'dev/summary/2006-09-01_2006-09-15'
p571
(Ng72
Ntp572
sS'psf/forms/emeritus'
p573
(NS'Conversion to Emeritus PSF Membership'
Ntp574
sS'about/success/tribon'
p575
(NS'Python Success Stories'
Ntp576
sS'download/releases/2.2.1/bugs'
p577
(NS'Known bugs in Python 2.2.1'
S'Bugs'
p578
tp579
sS'psf/records/members/2007-02-23'
p580
(NS"2007 PSF Members' Meeting Minutes"
Ntp581
sS'psf/volunteer'
p582
(NS'Volunteer'
S'Volunteer'
p583
tp584
sS'psf/records/board/minutes/2006-06-12'
p585
(NS'Python Software Foundation Board Meeting Minutes 2006-06-12'
Ntp586
sS'dev/summary/2001-06-1'
p587
(NS'Python-dev summary: 2001-05-24 to 2001-06-07'
Ntp588
sS'download/download_source'
p589
(NS'Download Python Sources'
Ntp590
sS'dev/summary/2001-06-2'
p591
(NS'Python-dev summary: 2001-06-07 to 2001-06-21'
Ntp592
sS'download/linux'
p593
(NS'Python for Linux'
g177
tp594
sS'community/sigs/current/distutils-sig/doc/requirements'
p595
(NS'Python Distutils-SIG: Requirements'
Ntp596
sS'dev'
p597
((((i__main__
Link
(dp598
g22
S'/dev/why/'
p599
sg24
S'Why Develop Python?'
p600
sg26
I00
sg27
Nsb(tt((i__main__
Link
(dp601
g22
S'/dev/setup/'
p602
sg24
S'Getting Set Up'
p603
sg26
I00
sg27
Nsb(tt((i__main__
Link
(dp604
g22
S'/dev/implementations/'
p605
sg24
S'Implementations'
p606
sg26
I00
sg27
Nsb(tt((i__main__
Link
(dp607
g22
S'/dev/intro/'
p608
sg24
S'Intro to Development'
p609
sg26
I00
sg27
Nsb(tt((i__main__
Link
(dp610
g22
S'/dev/process/'
p611
sg24
S'Development Process'
p612
sg26
I00
sg27
Nsb(tt((i__main__
Link
(dp613
g22
S'/dev/culture/'
p614
sg24
g348
sg26
I00
sg27
Nsb(tt((i__main__
Link
(dp615
g22
S'/dev/tools/'
p616
sg24
S'Tools'
p617
sg26
I00
sg27
Nsb(tt((i__main__
Link
(dp618
g22
S'/dev/patches/'
p619
sg24
S'Patch Submission'
p620
sg26
I00
sg27
Nsb(tt((i__main__
Link
(dp621
g22
S'/dev/buildbot/'
p622
sg24
S'Buildbot'
p623
sg26
I00
sg27
Nsb(tt((i__main__
Link
(dp624
g22
S'/dev/doc/'
p625
sg24
S'Documenting Python'
p626
sg26
I00
sg27
Nsb(tt((i__main__
Link
(dp627
g22
S'/dev/faq/'
p628
sg24
S'FAQ'
p629
sg26
I00
sg27
Nsb(tt((i__main__
Link
(dp630
g22
S'/dev/peps/'
p631
sg24
S'PEP Index'
p632
sg26
I00
sg27
Nsb(tt((i__main__
Link
(dp633
g22
S'/dev/summary/'
p634
sg24
S'python-dev Summaries'
p635
sg26
I00
sg27
Nsb(tt((i__main__
Link
(dp636
g22
S'/dev/pydotorg/'
p637
sg24
S'Python.org'
p638
sg26
I00
sg27
Nsb(tt((i__main__
Link
(dp639
g22
S'http://svn.python.org/view/'
p640
sg24
S'Browse Subversion'
p641
sg26
I00
sg27
Nsb(tt((i__main__
Link
(dp642
g22
S'/dev/bazaar/'
p643
sg24
S'Experimental Bazaar branches'
p644
sg26
I00
sg27
Nsb(tt((i__main__
Link
(dp645
g22
S'http://svn.python.org/snapshots/'
p646
sg24
S'Daily Snapshots'
p647
sg26
I00
sg27
Nsb(tttS'Python Developers Guide'
S'Core Development'
tp648
sS'psf/records/board/minutes/2006-04-10'
p649
(NS'Python Software Foundation Board Meeting Minutes 2006-04-10'
Ntp650
sS'about/success/devnet'
p651
(NS'Python Success Stories'
Ntp652
sS'about/success/mayavi'
p653
(NS'Python Success Stories'
Ntp654
sS'dev/summary/2005-10-01_2005-10-15'
p655
(NS'python-dev Summary for 2005-10-01 through 2005-10-15'
Ntp656
sS'psf/records/board/minutes/2007-08-13'
p657
(NS'2007-08-13 PSF Board Meeting Minutes'
Ntp658
sS'doc/faq/it/installed'
p659
(NS'"Why is Python Installed on my Computer?" FAQ'
Ntp660
sS'dev/summary/2001-05-2'
p661
(NS'Python-dev summary: 2001-05-10 to 2001-05-24'
Ntp662
sS'dev/summary/2001-05-1'
p663
(NS'Python-dev summary: 2001-04-26 to 2001-05-09'
Ntp664
sS'dev/peps/pep-0343'
p665
(NVPEP 343 -- The "with" Statement
Ntp666
sS'dev/peps/pep-0342'
p667
(NVPEP 342 -- Coroutines via Enhanced Generators
Ntp668
sS'dev/peps/pep-0341'
p669
(NVPEP 341 -- Unifying try-except and try-finally
Ntp670
sS'dev/peps/pep-0340'
p671
(NVPEP 340 -- Anonymous Block Statements
Ntp672
sS'dev/peps/pep-0347'
p673
(NVPEP 347 -- Migrating the Python CVS to Subversion
Ntp674
sS'dev/peps/pep-0346'
p675
(NVPEP 346 -- User Defined ("with") Statements
Ntp676
sS'dev/peps/pep-0345'
p677
(NVPEP 345 -- Metadata for Python Software Packages 1.2
Ntp678
sS'download/releases/2.1.1/rpms'
p679
(NS'Linux RPMs for Python 2.1.1'
S'Linux RPMS'
p680
tp681
sS'download/releases/2.3.6/license'
p682
(NS'Python 2.3.6 license'
g499
tp683
sS'dev/peps/pep-0349'
p684
(NVPEP 349 -- Allow str() to return unicode strings
Ntp685
sS'dev/peps/pep-0348'
p686
(NVPEP 348 -- Exception Reorganization for Python 3.0
Ntp687
sS'psf/records/members/2008-03-14/absentee-ballot'
p688
(NS"Absentee Ballot - 2008-03-14 PSF Members' Meeting"
Ntp689
sS'dev/summary/2006-02-16_2006-02-28'
p690
(Ng72
Ntp691
sS'dev/pydotorg'
p692
((((i__main__
Link
(dp693
g22
S'/dev/pydotorg/website/'
p694
sg24
S'Website Maintenance'
p695
sg26
I00
sg27
Nsb(tt((i__main__
Link
(dp696
g22
S'/dev/pydotorg/translations/'
p697
sg24
g567
sg26
I00
sg27
Nsb(tt((i__main__
Link
(dp698
g22
S'http://mail.python.org/replybot/'
p699
sg24
S'Replybot Texts'
p700
sg26
I00
sg27
Nsb(tttS'Python.org Maintenance and Administration'
g638
tp701
sS'dev/summary/2005-12-01_2005-12-15'
p702
(NS'python-dev Summary for 2005-12-01 through 2005-12-15'
Ntp703
sS'community/sigs/retired/types-sig/status'
p704
(NS'Types SIG Status'
S'Status'
p705
tp706
sS'dev/peps/pep-0100'
p707
(NVPEP 100 -- Python Unicode Integration
Ntp708
sS'community/sigs/retired'
p709
((((i__main__
Link
(dp710
S'href'
p711
S'/community/sigs/retired/compiler-sig/'
p712
sS'link_text'
p713
S'Compiler SIG'
p714
sS'selected'
p715
I00
sS'title'
p716
Nsb(tt((i__main__
Link
(dp717
g711
S'/community/sigs/retired/do-sig/'
p718
sg713
S'Do SIG'
p719
sg715
I00
sg716
Nsb(tt((i__main__
Link
(dp720
g711
S'/community/sigs/retired/getopt-sig/'
p721
sg713
g140
sg715
I00
sg716
Nsb(tt((i__main__
Link
(dp722
g711
S'/community/sigs/retired/import-sig/'
p723
sg713
S'Import SIG'
p724
sg715
I00
sg716
Nsb(tt((i__main__
Link
(dp725
g711
S'/community/sigs/retired/parser-sig/'
p726
sg713
S'Parser SIG'
p727
sg715
I00
sg716
Nsb(tt((i__main__
Link
(dp728
g711
S'/community/sigs/retired/persistence-sig/'
p729
sg713
S'Persistence SIG'
p730
sg715
I00
sg716
Nsb(tt((i__main__
Link
(dp731
g711
S'/community/sigs/retired/plot-sig/'
p732
sg713
S'Plot SIG'
p733
sg715
I00
sg716
Nsb(tt((i__main__
Link
(dp734
g711
S'/community/sigs/retired/thread-sig/'
p735
sg713
g351
sg715
I00
sg716
Nsb(tt((i__main__
Link
(dp736
g711
S'/community/sigs/retired/types-sig/'
p737
sg713
S'Types SIG'
p738
sg715
I00
sg716
Nsb(tt((i__main__
Link
(dp739
g711
S'/community/sigs/retired/string-sig/'
p740
sg713
g332
sg715
I00
sg716
Nsb(tt((i__main__
Link
(dp741
g711
S'/community/sigs/retired/matrix-sig/'
p742
sg713
S'Matrix SIG'
p743
sg715
I00
sg716
Nsb(tt((i__main__
Link
(dp744
g711
S'/community/sigs/retired/gui-sig/'
p745
sg713
S'Gui SIG'
p746
sg715
I00
sg716
Nsb(tt((i__main__
Link
(dp747
g711
S'/community/sigs/retired/objc-sig/'
p748
sg713
g28
sg715
I00
sg716
Nsb(tt((i__main__
Link
(dp749
g711
S'/community/sigs/retired/locator-sig/'
p750
sg713
g543
sg715
I00
sg716
Nsb(tt((i__main__
Link
(dp751
g711
S'/community/sigs/retired/pattern-sig/'
p752
sg713
S'Pattern SIG'
p753
sg715
I00
sg716
Nsb(tt((i__main__
Link
(dp754
g711
S'/community/sigs/retired/progenv-sig/'
p755
sg713
S'Progenv SIG'
p756
sg715
I00
sg716
Nsb(tt((i__main__
Link
(dp757
g711
S'/community/sigs/retired/pythonwin-sig/'
p758
sg713
S'Pythonwin SIG'
p759
sg715
I00
sg716
Nsb(tttS'Retired SIGS'
S'Retired SIGs'
p760
tp761
sS'download/releases/2.4/bugs'
p762
(NS'Bugs in Python 2.4'
S'Bugs'
p763
tp764
sS'doc/2.4.4/download'
p765
((((i__main__
Link
(dp766
g22
S'http://docs.python.org/'
p767
sg24
S'Current Docs'
p768
sg26
I00
sg27
Nsb(tt((i__main__
Link
(dp769
g22
S'http://wiki.python.org/moin/BeginnersGuide'
p770
sg24
S"Beginner's Guide"
p771
sg26
I00
sg27
Nsb(tt((i__main__
Link
(dp772
g22
S'/doc/faq/'
p773
sg24
S'FAQs'
p774
sg26
I00
sg27
Nsb(tt((i__main__
Link
(dp775
g22
S'http://wiki.python.org/moin/'
p776
sg24
S'Wiki'
p777
sg26
I00
sg27
Nsb(tt((i__main__
Link
(dp778
g22
S'/doc/other/'
p779
sg24
S'Other doc resources'
p780
sg26
I00
sg27
Nsb(tt((i__main__
Link
(dp781
g22
S'/dev/peps/'
p782
sg24
S'PEP Index'
p783
sg26
I00
sg27
Nsb(tt((i__main__
Link
(dp784
g22
S'http://wiki.python.org/moin/PythonBooks'
p785
sg24
S'Book list'
p786
sg26
I00
sg27
Nsb(tt((i__main__
Link
(dp787
g22
S'/doc/topics/'
p788
sg24
S'Topic guides'
p789
sg26
I00
sg27
Nsb(tt((i__main__
Link
(dp790
g22
S'/doc/newstyle/'
p791
sg24
S'New-style classes'
p792
sg26
I00
sg27
Nsb(tt((i__main__
Link
(dp793
g22
S'http://docs.python.org/library/re.html'
p794
sg24
S'Regular expressions'
p795
sg26
I00
sg27
Nsb(tttS'Download Python 2.4.4 Documentation'
Ntp796
sS'dev/peps/pep-0250'
p797
(NVPEP 250 -- Using site-packages on Windows
Ntp798
sS'download/releases/2.1/fsf'
p799
(NS'FSF response to the Python 2.1 license'
Ntp800
sS'download/releases/2.1.3'
p801
((((i__main__
Link
(dp802
g22
S'/download/releases/2.1.3/NEWS.txt/'
p803
sg24
S"What's New"
p804
sg26
I00
sg27
Nsb(tt((i__main__
Link
(dp805
g22
S'/download/releases/2.1.3/notes/'
p806
sg24
S'Release Notes'
p807
sg26
I00
sg27
Nsb(tt((i__main__
Link
(dp808
g22
S'/download/releases/2.1.3/license/'
p809
sg24
S'License'
p810
sg26
I00
sg27
Nsb(tt((i__main__
Link
(dp811
g22
S'/download/releases/2.1.3/rpms/'
p812
sg24
S'Linux RPMSs'
p813
sg26
I00
sg27
Nsb(tttS'Python 2.1.3'
g435
tp814
sS'dev/patches/style'
p815
(NS'Python Patch Style Guidelines'
S'Style Guidelines'
p816
tp817
sS'dev/peps/pep-0268'
p818
(NVPEP 268 -- Extended HTTP functionality and WebDAV
Ntp819
sS'dev/peps/pep-0269'
p820
(NVPEP 269 -- Pgen Module for Python
Ntp821
sS'doc/essays/metaclasses'
p822
(NS'Metaclasses in Python 1.5'
Ntp823
sS'dev/summary/2000-11-2'
p824
(NS'Python-dev summary: 2000-11-16 to 2000-11-30'
Ntp825
sS'download/releases/2.2/rpms'
p826
(NS'Linux RPMs for Python 2.2'
S'Linux RPMS'
p827
tp828
sS'dev/summary/2005-03-01_2005-03-15'
p829
(NS'python-dev Summary for 2005-03-01 through 2005-03-15'
Ntp830
sS'dev/summary/2000-11-1'
p831
(NS'Python-dev summary: 2000-11-01 to 2000-11-15'
Ntp832
sS'dev/summary/2006-10-01_2006-10-15'
p833
(Ng72
Ntp834
sS'community/sigs/current/distutils-sig/doc/interface'
p835
(NS'Python Distutils-SIG: Proposed User Interface'
Ntp836
sS'dev/peps/pep-0262'
p837
(NVPEP 262 -- A Database of Installed Python Packages
Ntp838
sS'dev/peps/pep-0263'
p839
(NVPEP 0263 -- Defining Python Source Code Encodings
Ntp840
sS'dev/peps/pep-0264'
p841
(NVPEP 264 -- Future statements in simulated shells
Ntp842
sS'dev/peps/pep-0265'
p843
(NVPEP 265 -- Sorting Dictionaries by Value
Ntp844
sS'dev/peps/pep-0266'
p845
(NVPEP 266 -- Optimizing Global Variable/Attribute Access
Ntp846
sS'dev/peps/pep-0267'
p847
(NVPEP 267 -- Optimized Access to Module Namespaces
Ntp848
sS'dev/peps/pep-0008'
p849
(NVPEP 8 -- Style Guide for Python Code
Ntp850
sS'dev/peps/pep-0009'
p851
(NVPEP 9 -- Sample Plaintext PEP Template
Ntp852
sS'dev/peps/pep-0004'
p853
(NVPEP 4 -- Deprecation of Standard Modules
Ntp854
sS'dev/peps/pep-0005'
p855
(NVPEP 5 -- Guidelines for Language Evolution
Ntp856
sS'dev/peps/pep-0006'
p857
(NVPEP 6 -- Bug Fix Releases
Ntp858
sS'dev/peps/pep-0007'
p859
(NVPEP 7 -- Style Guide for C Code
Ntp860
sS'dev/peps/pep-0000'
p861
(NVPEP 0 -- Index of Python Enhancement Proposals (PEPs)
Ntp862
sS'dev/peps/pep-0001'
p863
(NVPEP 1 -- PEP Purpose and Guidelines
Ntp864
sS'dev/peps/pep-0002'
p865
(NVPEP 2 -- Procedure for Adding New Modules
Ntp866
sS'dev/peps/pep-0003'
p867
(NVPEP 3 -- Guidelines for Handling Bug Reports
Ntp868
sS'dev/peps/pep-0259'
p869
(NVPEP 259 -- Omit printing newline after newline
Ntp870
sS'dev/summary/2004-03-01_2004-03-15'
p871
(NS'python-dev Summary for 2004-03-01 through 2004-03-15'
Ntp872
sS'dev/peps/pep-0258'
p873
(NVPEP 258 -- Docutils Design Specification
Ntp874
sS'dev/peps/pep-0332'
p875
(NVPEP 332 -- Byte vectors and String/Unicode Unification
Ntp876
sS'dev/peps/pep-3099'
p877
(NVPEP 3099 -- Things that will Not Change in Python 3000
Ntp878
sS'doc/slideshows'
p879
(NS'Slideshow Collections for Instructional Use'
Ntp880
sS'dev/summary/2006-04-01_2006-04-15'
p881
(Ng72
Ntp882
sS'doc/essays/pepparade'
p883
(NS'Parade of the PEPs'
Ntp884
sS'download/releases/1.6/download'
p885
(NS'Download Python 1.6 Source'
Ntp886
sS'about/success/ilm'
p887
(NS'Python Success Stories'
Ntp888
sS'dev/peps'
p889
(Ng72
g632
tp890
sS'dev/summary/2001-03-1'
p891
(NS'Python-dev summary: 2001-03-01 to 2001-03-14'
Ntp892
sS'dev/summary/2001-03-2'
p893
(NS'python-dev summary: 2001-03-15 - 2001-03-29'
Ntp894
sS'dev/intro'
p895
(NS'Guido, Some Guys, and a Mailing List: How Python is Developed'
g609
tp896
sS'dev/summary/2001-01-2'
p897
(NS'Python-dev summary: 2001-01-16 to 2001-01-31'
Ntp898
sS'dev/summary/2001-01-1'
p899
(NS'Python-dev summary: 2001-01-01 to 2001-01-15'
Ntp900
sS'dev/summary/2003-01-01_2003-01-15'
p901
(NS'python-dev Summary for 2003-01-01 through 2002-01-15'
Ntp902
sS'dev/bazaar'
p903
(NS'Experimental Bazaar branches'
g644
tp904
sS'dev/summary/2003-05-01_2003-05-15'
p905
(NS'python-dev Summary for 2003-05-01 through 2003-05-15'
Ntp906
sS'dev/patches'
p907
((((i__main__
Link
(dp908
g22
S'/dev/patches/style/'
p909
sg24
g816
sg26
I00
sg27
Nsb(tttS'Python Patch Submission Guidelines'
g620
tp910
sS'community/sigs/current/doc-sig/stext'
p911
(NS'Structured Text Formatting Rules'
S'Structured Text'
p912
tp913
sS'download/releases/2.2.3/bugs'
p914
(NS'Incompatibilities between Python 2.1[.x] and 2.2[.x]'
S'Bugs'
p915
tp916
sS'doc/faq/it/general'
p917
(NS'FAQ Generali su Python'
Ntp918
sS'doc/essays/omg-darpa-mcc-position'
p919
(NS'Glue It All Together With Python'
Ntp920
sS'psf/records/board/minutes/2007-06-11'
p921
(NS'2007-06-11 PSF Board Meeting Minutes'
Ntp922
sS'download/releases/2.4.3/license'
p923
(NS'Python 2.4.3 license'
S'License'
p924
tp925
sS'download/download_linux'
p926
(NS'Download Python for Linux'
Ntp927
sS'doc/essays/refcnt'
p928
(NS'Debugging Reference Count Problems'
Ntp929
sS'psf/press-release/pr200204'
p930
(NS'Python Software Foundation: Press Release 8-Apr-2002'
Ntp931
sS'download/releases/2.4.2'
p932
((((i__main__
Link
(dp933
g22
S'/download/releases/2.4.2/NEWS.txt/'
p934
sg24
S'Release Notes'
p935
sg26
I00
sg27
Nsb(tt((i__main__
Link
(dp936
g22
S'/download/releases/2.4.2/bugs/'
p937
sg24
S'Bugs'
p938
sg26
I00
sg27
Nsb(tt((i__main__
Link
(dp939
g22
S'/download/releases/2.4.2/license/'
p940
sg24
S'License'
p941
sg26
I00
sg27
Nsb(tt((i__main__
Link
(dp942
g22
S'/download/releases/2.4/msi/'
p943
sg24
S'Windows MSI Installer'
p944
sg26
I00
sg27
Nsb(tt((i__main__
Link
(dp945
g22
S'/download/releases/2.4.2/rpms/'
p946
sg24
S'Linux RPMS'
p947
sg26
I00
sg27
Nsb(tttS'Python 2.4.2 Release'
Ntp948
sS'download/releases/2.3/rpms'
p949
(NS'Linux RPMs for Python 2.3'
S'Linux RPMS'
p950
tp951
sS'about/legal'
p952
(NS'Legal Statements'
Ntp953
sS'doc/faq/general'
p954
(NS'General Python FAQ'
S'General'
p955
tp956
sS'psf/contrib/contrib-form-python'
p957
(NS'PSF Contributor Agreement for Python'
Ntp958
sS'psf/records/board/minutes/2007-03-12'
p959
(NS'2007-03-12 PSF Board Meeting Minutes'
Ntp960
sS'download/download_other'
p961
(NS'Download Python for Other Platforms'
Ntp962
sS'download/releases/2.1/license'
p963
(NS'Python 2.1 license'
S'License'
p964
tp965
sS'psf/records/board/minutes/2006-02-14'
p966
(NS'Python Software Foundation: Minutes of Board of Directors Meeting, February 14, 2006'
Ntp967
sS'dev/summary/2004-05-01_2004-05-31'
p968
(NS'python-dev Summary for 2004-05-01 through 2004-05-31'
Ntp969
sS'404'
p970
(NS'Page Not Found'
Ntp971
sS'dev/peps/pep-3140'
p972
(NVPEP 3140 -- str(container) should call str(item), not repr(item)
Ntp973
sS'dev/summary/2003-02-16_2003-02-28'
p974
(NS'python-dev Summary for 2003-02-16 through 2003-02-28'
Ntp975
sS'download/releases/2.1.1/license'
p976
(NS'Python 2.1.1 license'
S'License'
p977
tp978
sS'doc/humor'
p979
(NS'Python Humor'
Ntp980
sS'download/releases/2.2/descrintro'
p981
(NS'Unifying types and classes in Python 2.2'
Ntp982
sS'dev/peps/pep-3108'
p983
(NVPEP 3108 -- Standard Library Reorganization
Ntp984
sS'community/sigs/retired/types-sig/interfaces'
p985
(NS'Details on Python interfaces'
S'Interfaces'
p986
tp987
sS'psf/records/board/minutes/2005-04-12'
p988
(NS'Python Software Foundation: Minutes of Board of Directors\n Meeting (April 12, 2005)'
Ntp989
sS'download/releases/2.5.1/bugs'
p990
(NS'Bugs in Python 2.5.1'
g282
tp991
sS'download/releases/2.4/notes'
p992
(NS'Notes'
S'Release Notes'
p993
tp994
sS'dev/summary/2004-02-01_2004-02-29'
p995
(NS'python-dev Summary for 2004-02-01 through 2004-02-29'
Ntp996
sS'download/releases/2.4/msi'
p997
(NS'Using Windows Installer'
S'Windows MSI Installer'
p998
tp999
sS'dev/peps/pep-0261'
p1000
(NVPEP 261 -- Support for "wide" Unicode characters
Ntp1001
sS'download/releases/2.1.2/rpms'
p1002
(NS'Linux RPMs for Python 2.1.2'
S'Linux RPMS'
p1003
tp1004
sS'dev/summary/2003-01-16_2003-01-31'
p1005
(NS'python-dev Summary for 2003-01-16 through 2003-01-31'
Ntp1006
sS'dev/summary/2005-04-16_2005-04-30'
p1007
(NS'python-dev Summary for 2005-04-16 through 2005-04-30'
Ntp1008
sS'download/releases/2.3.3/license'
p1009
(NS'Python 2.3.3 license'
g470
tp1010
sS'dev/summary/2001-07-1'
p1011
(NS'Python-dev summary: 2001-06-21 to 2001-07-04'
Ntp1012
sS'dev/summary/2001-07-2'
p1013
(NS'Python-dev summary: 2001-07-05 to 2001-07-15'
Ntp1014
sS'dev/summary/2001-07-3'
p1015
(NS'Python-dev summary: 2001-07-16 to 2001-07-31'
Ntp1016
sS'psf/records/board/minutes/2003-08-12'
p1017
(NS'Python Software Foundation: Minutes of Board of Directors\n Meeting (August 12, 2003)'
Ntp1018
sS'dev/summary/2004-07-16_2004-07-31'
p1019
(NS'python-dev Summary for 2004-07-16 through 2004-07-31'
Ntp1020
sS'psf/records/board/minutes/2006-11-13'
p1021
(NS'2006-11-13 PSF Board Meeting Minutes'
Ntp1022
sS'dev/summary/2001-04-2'
p1023
(NS'Python-dev summary: 2001-04-12 to 2001-04-25'
Ntp1024
sS'dev/summary/2001-04-1'
p1025
(NS'Python-dev summary: 2001-03-29 to 2001-04-11'
Ntp1026
sS'community/sigs/current/doc-sig'
p1027
((((i__main__
Link
(dp1028
g22
S'/community/sigs/current/doc-sig/status/'
p1029
sg24
S'Status'
p1030
sg26
I00
sg27
Nsb(tt((i__main__
Link
(dp1031
g22
S'/community/sigs/current/doc-sig/stext/'
p1032
sg24
g912
sg26
I00
sg27
Nsb(tt((i__main__
Link
(dp1033
g22
S'/community/sigs/current/doc-sig/otherlangs/'
p1034
sg24
g359
sg26
I00
sg27
Nsb(tttS'Doc-SIG - Python Documentation Special Interest Group'
S'Doc SIG'
p1035
tp1036
sS'dev/summary/2005-01-01_2005-01-15'
p1037
(NS'python-dev Summary for 2005-01-01 through 2005-01-15'
Ntp1038
sS'dev/peps/pep-0224'
p1039
(NVPEP 224 -- Attribute Docstrings
Ntp1040
sS'dev/peps/pep-0225'
p1041
(NVPEP 225 -- Elementwise/Objectwise Operators
Ntp1042
sS'dev/peps/pep-0226'
p1043
(NVPEP 226 -- Python 2.1 Release Schedule
Ntp1044
sS'dev/peps/pep-0227'
p1045
(NVPEP 227 -- Statically Nested Scopes
Ntp1046
sS'dev/peps/pep-0220'
p1047
(NVPEP 220 -- Coroutines, Generators, Continuations
Ntp1048
sS'dev/peps/pep-0221'
p1049
(NVPEP 221 -- Import As
Ntp1050
sS'dev/summary/2005-07-01_2005-07-15'
p1051
(NS'python-dev Summary for 2005-07-01 through 2005-07-15'
Ntp1052
sS'dev/peps/pep-0223'
p1053
(NVPEP 223 -- Change the Meaning of \u005Cx Escapes
Ntp1054
sS'dev/summary/2003-10-01_2003-10-15'
p1055
(NS'python-dev Summary for 2003-10-01 through 2003-10-15'
Ntp1056
sS'dev/peps/pep-0228'
p1057
(NVPEP 228 -- Reworking Python's Numeric Model
Ntp1058
sS'dev/peps/pep-0229'
p1059
(NVPEP 229 -- Using Distutils to Build Python
Ntp1060
sS'psf/press-release/pr200103'
p1061
(NS'Python Software Foundation: Press Release 6-Mar-2001'
Ntp1062
sS'psf/press-release/pr20041221'
p1063
(NS'Python Software Foundation: Press Release 27-Dec-2004'
Ntp1064
sS'about/success/bats'
p1065
(NS'Python Success Stories'
Ntp1066
sS'psf/records/board/minutes/2007-07-09'
p1067
(NS'2007-07-09 PSF Board Meeting Minutes'
Ntp1068
sS'doc/faq/windows'
p1069
(NS'Windows FAQ'
S'Windows'
p1070
tp1071
sS'doc/essays/blurb'
p1072
(NS'What is Python?  Executive Summary'
Ntp1073
sS'download/releases/2.5/rpms'
p1074
(NS'Linux RPMs for Python 2.4.2'
Ntp1075
sS'dev/summary/2006-05-16_2006-05-31'
p1076
(Ng72
Ntp1077
sS'dev/peps/pep-0754'
p1078
(NVPEP 754 -- IEEE 754 Floating Point Special Values
Ntp1079
sS'doc/editors'
p1080
((((i__main__
Link
(dp1081
g22
S'/doc/editors/emacs/'
p1082
sg24
g198
sg26
I00
sg27
Nsb(tt((i__main__
Link
(dp1083
g22
S'/doc/editors/vim/'
p1084
sg24
g356
sg26
I00
sg27
Nsb(tttS'Editors for Python'
Ntp1085
sS'doc/faq/it/gui'
p1086
(NS'Graphic User Interface FAQ'
Ntp1087
sS'dev/summary/2003-02-01_2003-02-15'
p1088
(NS'python-dev Summary from 2003-02-01 through 2003-02-15'
Ntp1089
sS'dev/summary/2000-10-2'
p1090
(NS'Python-dev summary: 2000-10-17 to 2000-10-31'
Ntp1091
sS'dev/summary/2000-10-1'
p1092
(NS'Python-dev summary: 2000-10-01 to 2000-10-16'
Ntp1093
sS'download/releases/2.3.5/rpms'
p1094
(NS'Linux RPMs for Python 2.3.5'
g535
tp1095
sS'dev/summary/2002-10-01-2002-10-13'
p1096
(NS'python-dev Summary for 2003-10-01 through 2003-10-13'
Ntp1097
sS'doc/topics/database/docs'
p1098
(NS'Database Documentation'
S'Documentation'
p1099
tp1100
sS'doc/faq/programming'
p1101
((((i__main__
Link
(dp1102
g22
S'/doc/faq/programming/general/'
p1103
sg24
S'General'
p1104
sg26
I00
sg27
Nsb(tt((i__main__
Link
(dp1105
g22
S'/doc/faq/programming/programming/'
p1106
sg24
S'Programming'
p1107
sg26
I00
sg27
Nsb(tttS'General Programming FAQ'
S'Programming'
p1108
tp1109
sS'about/success/philips'
p1110
(NS'Python Success Stories'
Ntp1111
sS'psf/press-release/pr20021022'
p1112
(NS'Python Software Foundation: Press Release 22-Oct-2002'
Ntp1113
sS'community/sigs/retired/do-sig/issues'
p1114
(NS'Python Distributed Objects Special Interest Group'
S'Issues'
p1115
tp1116
sS'psf/records/board/conference'
p1117
(NS'Python Software Foundation Conference Committee'
Ntp1118
sS'psf/records/board/resolutions'
p1119
(NS'Python Software Foundation Resolutions'
Ntp1120
sS'download/releases/2.5.1/rpms'
p1121
(NS'Linux RPMs for Python 2.4.2'
Ntp1122
sS'doc/essays/graphs'
p1123
(NS'Python Patterns - Implementing Graphs'
Ntp1124
sS'download/releases/2.2.3/descrintro'
p1125
(NS'Unifying types and classes in Python 2.2'
S'New Style Classes'
p1126
tp1127
sS'psf/records/board/minutes/2002-08-13'
p1128
(NS'Python Software Foundation: Minutes of Board of Directors\n Meeting (August 13, 2002)'
Ntp1129
sS'psf/records/members/2002-02-06'
p1130
(NS'Python Software Foundation: Minutes of Feb. 2002 Member Meeting'
Ntp1131
sS'psf/records/members/2002-07/proxy-july-2002'
p1132
(NS'Appointment of Proxy for July 24, 2002 member meeting in San Diego, CA'
Ntp1133
sS'community/sigs/current/distutils-sig/tasks'
p1134
(NS'Python Distutils-SIG: Tasks and Division of Labour'
Ntp1135
sS'dev/summary/2006-03-16_2006-03-31'
p1136
(Ng72
Ntp1137
sS'dev/summary'
p1138
(NS'python-dev Summaries'
g635
tp1139
sS'psf/grants/report-2006-10'
p1140
(NS'2006-10-15 Grants Committee Status Report'
Ntp1141
sS'psf/records/members/2008-03-14/agenda'
p1142
(NS"Agenda of 2008 PSF Members' Meeting, 14 March 2008"
Ntp1143
sS'dev/tools'
p1144
(NS'Development Tools'
g617
tp1145
sS'download/releases/2.4/rpms'
p1146
(NS'Linux RPMs for Python 2.4'
S'Linux RPMSs'
p1147
tp1148
sS'psf/records/board/minutes/2003-10-14'
p1149
(NS'Python Software Foundation: Minutes of Board of Directors\n Meeting (October 14, 2003)'
Ntp1150
sS'dev/peps/pep-0251'
p1151
(NVPEP 251 -- Python 2.2 Release Schedule
Ntp1152
sS'dev/peps/pep-0319'
p1153
(NVPEP 319 -- Python Synchronize/Asynchronize Block
Ntp1154
sS'dev/peps/pep-0253'
p1155
(NVPEP 253 -- Subtyping Built-in Types
Ntp1156
sS'dev/peps/pep-0252'
p1157
(NVPEP 252 -- Making Types Look More Like Classes
Ntp1158
sS'dev/peps/pep-0255'
p1159
(NVPEP 255 -- Simple Generators
Ntp1160
sS'dev/peps/pep-0254'
p1161
(NVPEP 254 -- Making Classes Look More Like Types
Ntp1162
sS'psf/records/board/minutes/2005-03-08'
p1163
(NS'Python Software Foundation: Minutes of Board of Directors\n Meeting (March 8, 2005)'
Ntp1164
sS'dev/peps/pep-0256'
p1165
(NVPEP 256 -- Docstring Processing System Framework
Ntp1166
sS'dev/peps/pep-0310'
p1167
(NVPEP 310 -- Reliable Acquisition/Release Pairs
Ntp1168
sS'dev/peps/pep-0311'
p1169
(NVPEP 311 -- Simplified Global Interpreter Lock Acquisition for Extensions
Ntp1170
sS'dev/peps/pep-0312'
p1171
(NVPEP 312 -- Simple Implicit Lambda
Ntp1172
sS'dev/peps/pep-0313'
p1173
(NVPEP 313 -- Adding Roman Numeral Literals to Python
Ntp1174
sS'dev/peps/pep-0314'
p1175
(NVPEP 314 -- Metadata for Python Software Packages v1.1
Ntp1176
sS'dev/peps/pep-0315'
p1177
(NVPEP 315 -- Enhanced While Loop
Ntp1178
sS'dev/peps/pep-0316'
p1179
(NVPEP 316 -- Programming by Contract for Python
Ntp1180
sS'dev/peps/pep-0317'
p1181
(NVPEP 317 -- Eliminate Implicit Exception Instantiation
Ntp1182
sS'dev/peps/pep-3104'
p1183
(NVPEP 3104 -- Access to Names in Outer Scopes
Ntp1184
sS'dev/peps/pep-3105'
p1185
(NVPEP 3105 -- Make print a function
Ntp1186
sS'dev/peps/pep-3106'
p1187
(NVPEP 3106 -- Revamping dict.keys(), .values() and .items()
Ntp1188
sS'dev/peps/pep-3107'
p1189
(NVPEP 3107 -- Function Annotations
Ntp1190
sS'dev/peps/pep-3100'
p1191
(NVPEP 3100 -- Miscellaneous Python 3.0 Plans
Ntp1192
sS'dev/peps/pep-3101'
p1193
(NVPEP 3101 -- Advanced String Formatting
Ntp1194
sS'dev/peps/pep-3102'
p1195
(NVPEP 3102 -- Keyword-Only Arguments
Ntp1196
sS'dev/peps/pep-3103'
p1197
(NVPEP 3103 -- A Switch/Case Statement
Ntp1198
sS'download/releases/2.3.7/license'
p1199
(NS'Python 2.3.7 license'
g510
tp1200
sS'dev/summary/2003-03-01_2003-03-15'
p1201
(NS'python-dev Summary for 2003-03-01 through 2003-03-15'
Ntp1202
sS'community/pycon/ok'
p1203
(NS'PyCon Registration - Proceed to Checkout'
Ntp1204
sS'dev/peps/pep-3109'
p1205
(NVPEP 3109 -- Raising Exceptions in Python 3000
Ntp1206
sS'community/sigs/current/web-sig'
p1207
(NS'Web SIG'
S'Web SIG'
p1208
tp1209
sS'psf/records/board/minutes/2004-12-14'
p1210
(NS'Python Software Foundation: Minutes of Board of Directors Meeting (December 14, 2004)'
Ntp1211
sS'about/eatingout'
p1212
(NS'Eating Out'
S'Eating Out'
p1213
tp1214
sS'dev/summary/2006-12-01_2006-12-15'
p1215
(Ng72
Ntp1216
sS'doc/essays/everybody'
p1217
(NS'Computer Programming for Everybody'
Ntp1218
sS'dev/peps/pep-0299'
p1219
(NVPEP 299 -- Special __main__() function in modules
Ntp1220
sS'dev/summary/2006-02-01_2006-02-15'
p1221
(Ng72
Ntp1222
sS'psf/records/board/minutes/2008-10-13'
p1223
(NS'2008-10-13 PSF Board Meeting Minutes'
Ntp1224
sS'download/releases/2.4.1/license'
p1225
(NS'Python 2.4.1 - License'
S'License'
p1226
tp1227
sS'psf/records/board/minutes/2006-07-10'
p1228
(NS'Python Software Foundation Board Meeting Minutes 2006-07-10'
Ntp1229
sS'dev/peps/pep-0298'
p1230
(NVPEP 298 -- The Locked Buffer Interface
Ntp1231
sS'psf/records/board/treasurer/2003-12'
p1232
(NS"Python Software Foundation: Treasurer's Report (December 2003)"
Ntp1233
sS'download/releases/2.5'
p1234
((((i__main__
Link
(dp1235
g22
S'/download/releases/2.5/NEWS.txt/'
p1236
sg24
S'Release Notes'
p1237
sg26
I00
sg27
Nsb(tt((i__main__
Link
(dp1238
g22
S'/download/releases/2.5/IDLENEWS.txt/'
p1239
sg24
S'IDLE Release Notes'
p1240
sg26
I00
sg27
Nsb(tt((i__main__
Link
(dp1241
g22
S'/download/releases/2.5/highlights/'
p1242
sg24
S'Highlights'
p1243
sg26
I00
sg27
Nsb(tt((i__main__
Link
(dp1244
g22
S'/download/releases/2.5/bugs/'
p1245
sg24
S'Bugs'
p1246
sg26
I00
sg27
Nsb(tt((i__main__
Link
(dp1247
g22
S'/download/releases/2.5/license/'
p1248
sg24
S'License'
p1249
sg26
I00
sg27
Nsb(tt((i__main__
Link
(dp1250
g22
S'/download/releases/2.5/msi/'
p1251
sg24
S'Windows Installer Docs'
p1252
sg26
I00
sg27
Nsb(tttS'Python 2.5 Release'
Ntp1253
sS'download/releases/2.4'
p1254
((((i__main__
Link
(dp1255
g22
S'/download/releases/2.4/highlights/'
p1256
sg24
S'Highlights'
p1257
sg26
I00
sg27
Nsb(tt((i__main__
Link
(dp1258
g22
S'/download/releases/2.4/notes/'
p1259
sg24
g993
sg26
I00
sg27
Nsb(tt((i__main__
Link
(dp1260
g22
S'/download/releases/2.4/bugs/'
p1261
sg24
g763
sg26
I00
sg27
Nsb(tt((i__main__
Link
(dp1262
g22
S'/download/releases/2.4/license/'
p1263
sg24
S'License'
p1264
sg26
I00
sg27
Nsb(tt((i__main__
Link
(dp1265
g22
S'/download/releases/2.4/msi/'
p1266
sg24
g998
sg26
I00
sg27
Nsb(tt((i__main__
Link
(dp1267
g22
S'/download/releases/2.4/rpms/'
p1268
sg24
g1147
sg26
I00
sg27
Nsb(tttS'Python 2.4'
Ntp1269
sS'download/releases/2.4.3/rpms'
p1270
(NS'Linux RPMs for Python 2.4.3'
Ntp1271
sS'download/releases/2.6'
p1272
((((i__main__
Link
(dp1273
g22
S'/download/releases/2.6/NEWS.txt/'
p1274
sg24
S'Release Notes'
p1275
sg26
I00
sg27
Nsb(tt((i__main__
Link
(dp1276
g22
S'/download/releases/2.6/IDLENEWS.txt/'
p1277
sg24
S'IDLE Release Notes'
p1278
sg26
I00
sg27
Nsb(tt((i__main__
Link
(dp1279
g22
S'/download/releases/2.6/highlights/'
p1280
sg24
S'Highlights'
p1281
sg26
I00
sg27
Nsb(tt((i__main__
Link
(dp1282
g22
S'/download/releases/2.6/bugs/'
p1283
sg24
S'Bugs'
p1284
sg26
I00
sg27
Nsb(tt((i__main__
Link
(dp1285
g22
S'/download/releases/2.6/license/'
p1286
sg24
g404
sg26
I00
sg27
Nsb(tt((i__main__
Link
(dp1287
g22
S'/download/releases/2.6/msi/'
p1288
sg24
S'Windows Installer Docs'
p1289
sg26
I00
sg27
Nsb(tttS'Python 2.6 Release'
g421
tp1290
sS'download/releases/2.1'
p1291
((((i__main__
Link
(dp1292
g22
S'/download/releases/2.1/NEWS.txt/'
p1293
sg24
S'Release Notes'
p1294
sg26
I00
sg27
Nsb(tt((i__main__
Link
(dp1295
g22
S'/download/releases/2.1/license/'
p1296
sg24
g964
sg26
I00
sg27
Nsb(tt((i__main__
Link
(dp1297
g22
S'/download/releases/2.1/rpms/'
p1298
sg24
S'Linux RPMS'
p1299
sg26
I00
sg27
Nsb(tt((i__main__
Link
(dp1300
g22
S'/download/releases/2.1/press/'
p1301
sg24
S'Press Release'
p1302
sg26
I00
sg27
Nsb(tttS'Python 2.1'
Ntp1303
sS'download/releases/2.0'
p1304
(NS'Python 2.0'
Ntp1305
sS'download/releases/2.3'
p1306
((((i__main__
Link
(dp1307
g22
S'/download/releases/2.3/highlights/'
p1308
sg24
S'Highlights'
p1309
sg26
I00
sg27
Nsb(tt((i__main__
Link
(dp1310
g22
S'/download/releases/2.3/NEWS.txt/'
p1311
sg24
S'Release Notes'
p1312
sg26
I00
sg27
Nsb(tt((i__main__
Link
(dp1313
g22
S'/download/releases/2.3/bugs/'
p1314
sg24
g322
sg26
I00
sg27
Nsb(tt((i__main__
Link
(dp1315
g22
S'/download/releases/2.3/license/'
p1316
sg24
g548
sg26
I00
sg27
Nsb(tt((i__main__
Link
(dp1317
g22
S'/download/releases/2.3/rpms/'
p1318
sg24
g950
sg26
I00
sg27
Nsb(tttS'Python 2.3'
Ntp1319
sS'download/releases/2.2'
p1320
((((i__main__
Link
(dp1321
g22
S'/download/releases/2.2/NEWS.txt/'
p1322
sg24
S'Release Notes'
p1323
sg26
I00
sg27
Nsb(tt((i__main__
Link
(dp1324
g22
S'/download/releases/2.2/bugs/'
p1325
sg24
S'Bugs'
p1326
sg26
I00
sg27
Nsb(tt((i__main__
Link
(dp1327
g22
S'/download/releases/2.2/license/'
p1328
sg24
S'License'
p1329
sg26
I00
sg27
Nsb(tt((i__main__
Link
(dp1330
g22
S'/download/releases/2.2/rpms/'
p1331
sg24
g827
sg26
I00
sg27
Nsb(tttS'Python 2.2'
Ntp1332
sS'download/releases/2.1/rpms'
p1333
(NS'Linux RPMs for Python 2.1'
g1299
tp1334
sS'community/sigs/current/distutils-sig/doc/ipc7_devday'
p1335
(NS'Summary of "Extension Building" Session'
Ntp1336
sS'community/sigs/current/catalog-sig'
p1337
((((i__main__
Link
(dp1338
g22
S'/community/sigs/current/catalog-sig/others/'
p1339
sg24
S'Other Systems'
p1340
sg26
I00
sg27
Nsb(tt((i__main__
Link
(dp1341
g22
S'/community/sigs/current/catalog-sig/requirements/'
p1342
sg24
S'Requirements'
p1343
sg26
I00
sg27
Nsb(tttS'SIG for Python Resource Cataloguing'
S'Catalog SIG'
p1344
tp1345
sS'psf/records/board/minutes/2006-02-25'
p1346
(NS'Python Software Foundation Board Meeting Minutes 2006-02-25'
Ntp1347
sS'download/releases/1.6.1/download_win'
p1348
(NS'Download Python 1.6.1 Windows Installer'
S'Download Windows'
p1349
tp1350
sS'community/sigs/retired/pythonwin-sig/mission'
p1351
(NS'PYTHONWIN-SIG, A Special Interest Group on Win95/NT GUI version of Python'
Ntp1352
sS'doc/topics/2003'
p1353
(NS'The Year in Python: 2003'
Ntp1354
sS'psf/records/board/minutes/2003-06-10'
p1355
(NS'Python Software Foundation: Minutes of Board of Directors\n Meeting (June 10, 2003)'
Ntp1356
sS'dev/summary/2005-06-16_2005-06-30'
p1357
(NS'Python-dev Summary for 2005-06-16 through 2005-06-30'
Ntp1358
sS'dev/summary/2004-07-01_2004-07-15'
p1359
(NS'python-dev Summary for 2004-07-01 through 2004-07-15'
Ntp1360
sS'download/releases/2.2.2'
p1361
((((i__main__
Link
(dp1362
g22
S'/download/releases/2.2.2/NEWS.txt/'
p1363
sg24
S'Release Notes'
p1364
sg26
I00
sg27
Nsb(tt((i__main__
Link
(dp1365
g22
S'/download/releases/2.2.2/bugs/'
p1366
sg24
g343
sg26
I00
sg27
Nsb(tt((i__main__
Link
(dp1367
g22
S'/download/releases/2.2.2/license/'
p1368
sg24
S'License'
p1369
sg26
I00
sg27
Nsb(tt((i__main__
Link
(dp1370
g22
S'/download/releases/2.2.2/rpms/'
p1371
sg24
S'Linux RPMS'
p1372
sg26
I00
sg27
Nsb(tt((i__main__
Link
(dp1373
g22
S'/download/releases/2.2.2/macnotes.txt/'
p1374
sg24
S'Mac Release Notes'
p1375
sg26
I00
sg27
Nsb(tttS'Python 2.2.2'
Ntp1376
sS'download/releases/2.2.1'
p1377
((((i__main__
Link
(dp1378
g22
S'/download/releases/2.2.1/NEWS.txt/'
p1379
sg24
S'Release Notes'
p1380
sg26
I00
sg27
Nsb(tt((i__main__
Link
(dp1381
g22
S'/download/releases/2.2.1/bugs/'
p1382
sg24
g578
sg26
I00
sg27
Nsb(tt((i__main__
Link
(dp1383
g22
S'/download/releases/2.2.1/license/'
p1384
sg24
S'License'
p1385
sg26
I00
sg27
Nsb(tt((i__main__
Link
(dp1386
g22
S'/download/releases/2.2.1/rpms/'
p1387
sg24
g99
sg26
I00
sg27
Nsb(tt((i__main__
Link
(dp1388
g22
S'/download/releases/2.2.1/mac/'
p1389
sg24
S'Macintosh Page'
p1390
sg26
I00
sg27
Nsb(tt((i__main__
Link
(dp1391
g22
S'/download/releases/2.2.1/macnotes.txt/'
p1392
sg24
S'Mac Release Notes'
p1393
sg26
I00
sg27
Nsb(tttS'Python 2.2.1'
Ntp1394
sS'doc/faq/it'
p1395
(NS'Domande frequenti su Python'
Ntp1396
sS'doc/essays/stdexceptions'
p1397
(NS'Standard Exception Classes in Python 1.5'
Ntp1398
sS'about/success/rackspace'
p1399
(NS'Python Success Stories'
Ntp1400
sS'dev/summary/2005-11-01_2005-11-15'
p1401
(NS'python-dev Summary for 2005-11-01 through 2005-11-15'
Ntp1402
sS'download/releases/2.3/mro'
p1403
(NS'The Python 2.3 Method Resolution Order'
Ntp1404
sS'dev/peps/pep-0241'
p1405
(NVPEP 241 -- Metadata for Python Software Packages
Ntp1406
sS'psf/donations'
p1407
(NS'Donate to the PSF'
S'Donations'
p1408
tp1409
sS'psf/records/board/minutes/2008-08-11'
p1410
(NS'2008-08-11 PSF Board Meeting Minutes'
Ntp1411
sS'community/awards/frank-willison'
p1412
(NS'Frank Willison Award'
S'Frank Willison Award'
p1413
tp1414
sS'community/pycon/register'
p1415
(NS'PyCon Registration'
Ntp1416
sS'dev/summary/2006-07-01_2006-07-15'
p1417
(Ng72
Ntp1418
sS'community/sigs'
p1419
((((i__main__
Link
(dp1420
g711
S'/community/sigs/guidelines/'
p1421
sg713
S'Guidelines'
p1422
sg715
I00
sg716
Nsb(tt((i__main__
Link
(dp1423
g711
S'/community/sigs/coordination/'
p1424
sg713
S'Coordination'
p1425
sg715
I00
sg716
Nsb(tt((i__main__
Link
(dp1426
g711
S'/community/sigs/current/'
p1427
sg713
S'Current SIGS'
p1428
sg715
I00
sg716
Nsb(tt((i__main__
Link
(dp1429
g711
S'/community/sigs/retired/'
p1430
sg713
g760
sg715
I00
sg716
Nsb(tttS'Python Special Interest Groups'
S'Special Interest Groups'
tp1431
sS'dev/doc'
p1432
(NS'Documentation Development'
g626
tp1433
sS'doc/faq/library'
p1434
(NS'Library and Extension FAQ'
S'Library & Extensions'
p1435
tp1436
sS'psf/committees'
p1437
(NS'Committees of the Python Software Foundation'
S'Committees'
p1438
tp1439
sS'about/success/nexedi'
p1440
(NS'Python Success Stories'
Ntp1441
sS'community/sigs/current/db-sig'
p1442
((((i__main__
Link
(dp1443
g22
S'/community/sigs/current/db-sig/status/'
p1444
sg24
S'SIG Status'
p1445
sg26
I00
sg27
Nsb(tttS'SIG on Tabular Databases in Python'
S'Database SIG'
p1446
tp1447
sS'doc/topics'
p1448
((((i__main__
Link
(dp1449
g22
S'http://wiki.python.org/moin/BeginnersGuide'
p1450
sg24
S"Beginner's Guide"
p1451
sg26
I00
sg27
Nsb(tt((i__main__
Link
(dp1452
g22
S'http://wiki.python.org/moin/WebProgramming'
p1453
sg24
S'Web Programming'
p1454
sg26
I00
sg27
Nsb(tt((i__main__
Link
(dp1455
g22
S'http://pyxml.sourceforge.net/topics/'
p1456
sg24
S'XML'
p1457
sg26
I00
sg27
Nsb(tt((i__main__
Link
(dp1458
g22
S'http://wiki.python.org/moin/DatabaseProgramming'
p1459
sg24
S'Databases'
p1460
sg26
I00
sg27
Nsb(tt((i__main__
Link
(dp1461
g22
S'http://wiki.python.org/moin/GuiProgramming'
p1462
sg24
S'GUI Programming'
p1463
sg26
I00
sg27
Nsb(tt((i__main__
Link
(dp1464
g22
S'http://wiki.python.org/moin/NumericAndScientific'
p1465
sg24
S'Scientific Computing'
p1466
sg26
I00
sg27
Nsb(tt((i__main__
Link
(dp1467
g22
S'http://wiki.python.org/moin/TkInter'
p1468
sg24
S'Tkinter'
p1469
sg26
I00
sg27
Nsb(tt((i__main__
Link
(dp1470
g22
S'http://wiki.python.org/moin/LanguageParsing'
p1471
sg24
S'Parser Generators'
p1472
sg26
I00
sg27
Nsb(tttS'Topics'
S'Topic Guides'
p1473
tp1474
sS'download/releases/2.1.3/rpms'
p1475
(NS'Linux RPMs for Python 2.1.3'
g813
tp1476
sS'doc/topics/yisl2002'
p1477
(NS'The Year in Scripting Languages'
Ntp1478
sS'dev/summary/2000-08-2'
p1479
(NS'Python-dev summary: 2000-08-16 to 2000-08-31'
Ntp1480
sS'download/releases/2.4.4/license'
p1481
(NS'Python 2.4.4 license'
S'License'
p1482
tp1483
sS'psf/summary'
p1484
(NS'Executive Summary: The Python Software Foundation'
S'Executive Summary'
p1485
tp1486
sS'dev/summary/2005-11-16_2005-11-30'
p1487
(NS'python-dev Summary for 2005-11-16 through 2005-11-30'
Ntp1488
sS'community/sigs/retired/progenv-sig/mission'
p1489
(NS'PROGENV-SIG, Discussion forum for Python programming-environment issues'
S'Mission'
p1490
tp1491
sS'download/releases/2.0.1'
p1492
((((i__main__
Link
(dp1493
g22
S'/download/releases/2.0.1/NEWS.txt/'
p1494
sg24
S'Release Notes'
p1495
sg26
I00
sg27
Nsb(tt((i__main__
Link
(dp1496
g22
S'/download/releases/2.0.1/press/'
p1497
sg24
S'Press Release'
p1498
sg26
I00
sg27
Nsb(tt((i__main__
Link
(dp1499
g22
S'/download/releases/2.0.1/license/'
p1500
sg24
S'License'
p1501
sg26
I00
sg27
Nsb(tt((i__main__
Link
(dp1502
g22
S'/download/releases/2.0.1/rpms/'
p1503
sg24
S'Linux RPMS'
p1504
sg26
I00
sg27
Nsb(tttS'Python 2.0.1 Release'
g438
tp1505
sS'doc/copyright'
p1506
(NS'Python Copyright'
Ntp1507
sS'download/releases/2.2.2/descrintro'
p1508
(NS'Unifying types and classes in Python 2.2'
Ntp1509
sS'community/sigs/current/distutils-sig/list'
p1510
(NS'Python Distutils-SIG: Mailing List'
g309
tp1511
sS'download/releases/2.1.1/press'
p1512
(NS'Python 2.1 Press Release'
S'Press Release'
p1513
tp1514
sS'psf/records/members/2006-02/ballot-february-2006'
p1515
(NS'Absentee ballot for February 24, 2006 member meeting in Dallas, TX'
Ntp1516
sS'psf/records/board/minutes/2008-07-14'
p1517
(NS'2008-07-14 PSF Board Meeting Minutes'
Ntp1518
sS'dev/peps/pep-0354'
p1519
(NVPEP 354 -- Enumerations in Python
Ntp1520
sS'dev/summary/2005-01-16_2005-01-31'
p1521
(NS'python-dev Summary for 2005-01-16 through 2005-01-31'
Ntp1522
sS'dev/peps/pep-0356'
p1523
(NVPEP 356 -- Python 2.5 Release Schedule
Ntp1524
sS'dev/peps/pep-0357'
p1525
(NVPEP 357 -- Allowing Any Object to be Used for Slicing
Ntp1526
sS'dev/peps/pep-0350'
p1527
(NVPEP 350 -- Codetags
Ntp1528
sS'dev/peps/pep-0351'
p1529
(NVPEP 351 -- The freeze protocol
Ntp1530
sS'dev/peps/pep-0352'
p1531
(NVPEP 352 -- Required Superclass for Exceptions
Ntp1532
sS'dev/peps/pep-0353'
p1533
(NVPEP 353 -- Using ssize_t as the index type
Ntp1534
sS'dev/summary/2005-02-15_2005-02-28'
p1535
(NS'python-dev Summary for 2005-02-15 through 2005-02-28'
Ntp1536
sS'dev/peps/pep-3132'
p1537
(NVPEP 3132 -- Extended Iterable Unpacking
Ntp1538
sS'dev/peps/pep-0358'
p1539
(NVPEP 358 -- The "bytes" Object
Ntp1540
sS'dev/peps/pep-0359'
p1541
(NVPEP 359 -- The "make" Statement
Ntp1542
sS'dev/summary/2006-05-01_2006-05-15'
p1543
(Ng72
Ntp1544
sS'psf/records/board/minutes/2008-04-14'
p1545
(NS'2008-04-14 PSF Board Meeting Minutes'
Ntp1546
sS'download/svn'
p1547
(NS'Source Access Via Subversion'
g189
tp1548
sS'download/releases/2.4.5/license'
p1549
(NS'Python 2.4.4 license'
S'License'
p1550
tp1551
sS'dev/summary/2004-12-16_2004-12-31'
p1552
(NS'python-dev Summary for 2004-12-16 through 2004-12-31'
Ntp1553
sS'psf/about'
p1554
(NS'About the Python Software Foundation'
S'About the PSF'
p1555
tp1556
sS'dev/summary/2003-10-16_2003-11-15'
p1557
(NS'python-dev Summary for 2003-10-16 through 2003-11-15'
Ntp1558
sS'doc'
p1559
((((i__main__
Link
(dp1560
g22
S'http://docs.python.org'
p1561
sg24
S'Current Docs'
p1562
sg26
I00
sg27
Nsb(tt((i__main__
Link
(dp1563
g22
S'http://wiki.python.org/moin/BeginnersGuide'
p1564
sg24
S"Beginner's Guide"
p1565
sg26
I00
sg27
Nsb(tt((i__main__
Link
(dp1566
g22
S'/doc/faq/'
p1567
sg24
S'FAQs'
p1568
sg26
I00
sg27
Nsb(tt((i__main__
Link
(dp1569
g22
S'http://wiki.python.org/moin/'
p1570
sg24
S'Wiki'
p1571
sg26
I00
sg27
Nsb(tt((i__main__
Link
(dp1572
g22
S'/doc/other/'
p1573
sg24
S'Other Doc Resources'
p1574
sg26
I00
sg27
Nsb(tt((i__main__
Link
(dp1575
g22
S'/dev/peps/'
p1576
sg24
S'PEP Index'
p1577
sg26
I00
sg27
Nsb(tt((i__main__
Link
(dp1578
g22
S'http://wiki.python.org/moin/PythonBooks'
p1579
sg24
S'Book List'
p1580
sg26
I00
sg27
Nsb(tt((i__main__
Link
(dp1581
g22
S'/doc/topics/'
p1582
sg24
g1473
sg26
I00
sg27
Nsb(tt((i__main__
Link
(dp1583
g22
S'/doc/newstyle/'
p1584
sg24
g335
sg26
I00
sg27
Nsb(tt((i__main__
Link
(dp1585
g22
S'http://docs.python.org/library/re.html'
p1586
sg24
S'Regular Expressions'
p1587
sg26
I00
sg27
Nsb(tt((i__main__
Link
(dp1588
g22
S'/doc/av/'
p1589
sg24
S'Audio/Visual Talks'
p1590
sg26
I00
sg27
Nsb(tttS'Python Documentation Index'
S'Documentation'
tp1591
sS'psf/forms'
p1592
(NS'PSF Membership Forms'
S'Membership Forms'
p1593
tp1594
sS'download/releases/2.5/bugs'
p1595
(NS'Bugs in Python 2.5'
g1246
tp1596
sS'dev/summary/2004-08-16_2004-08-31'
p1597
(NS'python-dev Summary for 2004-08-16 through 2004-08-31'
Ntp1598
sS'dev/setup'
p1599
(NS'Setting Up for Developing Python'
g603
tp1600
sS'dev/summary/2004-06-16_2004-06-30'
p1601
(NS'python-dev Summary for 2004-06-16 through 2004-06-30'
Ntp1602
sS'dev/peps/pep-0219'
p1603
(NVPEP 219 -- Stackless Python
Ntp1604
sS'dev/peps/pep-0218'
p1605
(NVPEP 218 -- Adding a Built-In Set Object Type
Ntp1606
sS'dev/peps/pep-0215'
p1607
(NVPEP 215 -- String Interpolation
Ntp1608
sS'download/releases/2.2.3'
p1609
((((i__main__
Link
(dp1610
g22
S'/download/releases/2.2.3/NEWS.txt/'
p1611
sg24
S"What's New"
p1612
sg26
I00
sg27
Nsb(tt((i__main__
Link
(dp1613
g22
S'/download/releases/2.2.3/descrintro/'
p1614
sg24
g1126
sg26
I00
sg27
Nsb(tt((i__main__
Link
(dp1615
g22
S'/download/releases/2.2.3/bugs/'
p1616
sg24
g915
sg26
I00
sg27
Nsb(tt((i__main__
Link
(dp1617
g22
S'/download/releases/2.2.3/license/'
p1618
sg24
S'License'
p1619
sg26
I00
sg27
Nsb(tt((i__main__
Link
(dp1620
g22
S'/download/releases/2.2.3/rpms/'
p1621
sg24
S'Linux RPMS'
p1622
sg26
I00
sg27
Nsb(tttS'Python 2.2.3'
g432
tp1623
sS'dev/peps/pep-0217'
p1624
(NVPEP 217 -- Display Hook for Interactive Use
Ntp1625
sS'dev/peps/pep-0216'
p1626
(NVPEP 216 -- Docstring Format
Ntp1627
sS'dev/peps/pep-0211'
p1628
(NVPEP 211 -- Adding A New Outer Product Operator
Ntp1629
sS'dev/peps/pep-0210'
p1630
(NVPEP 210 -- Decoupling the Interpreter Loop
Ntp1631
sS'dev/peps/pep-0213'
p1632
(NVPEP 213 -- Attribute Access Handlers
Ntp1633
sS'doc/faq/extending'
p1634
(NS'Extending and Embedding FAQ'
S'Extending & Embedding'
p1635
tp1636
sS'psf/records/exemption'
p1637
(NS'Python Software Foundation: Missing 1023 form'
Ntp1638
sS'dev/summary/2006-06-01_2006-06-15'
p1639
(Ng72
Ntp1640
sS'dev/summary/2006-08-01_2006-08-15'
p1641
(Ng72
Ntp1642
sS'about/success/xist'
p1643
(NS'Python Success Stories'
Ntp1644
sS'psf/records/members/2008-03-14'
p1645
(NS"2008 PSF Members' Meeting Minutes"
Ntp1646
sS'doc/essays/list2str'
p1647
(NS'Python Patterns - An Optimization Anecdote'
Ntp1648
sS'dev/buildbot/community'
p1649
(NS'Python Community Buildbot'
Ntp1650
sS'download/releases/2.4.2/license'
p1651
(NS'Python 2.4.2 license'
g941
tp1652
sS'about/birmingham'
p1653
(NS'About Birmingham'
S'Birmingham'
p1654
tp1655
sS'psf/records/board/minutes/2003-05-13'
p1656
(NS'Python Software Foundation: Minutes of Board of Directors\n Meeting (May 13, 2003)'
Ntp1657
sS'psf/records/board/minutes/2004-03-26'
p1658
(NS'Python Software Foundation: Minutes of Board of Directors\n Meeting (March 26, 2004)'
Ntp1659
sS'community/sigs/retired/parser-sig'
p1660
((((i__main__
Link
(dp1661
g22
S'/community/sigs/retired/parser-sig/towards-standard/'
p1662
sg24
S'Towards a Standard Parser'
p1663
sg26
I00
sg27
Nsb(tttS'Parser-SIG - SIG on Parser Generation for Python'
g727
tp1664
sS'community/sigs/retired/types-sig/typeclass'
p1665
(NS'Details on the types vs. classes dichotomy'
S'Type Class'
p1666
tp1667
sS'psf/records/board/minutes/2006-01-10'
p1668
(NS'Python Software Foundation: Minutes of Board of Directors Meeting, January 10, 2006'
Ntp1669
sS'download/releases/2.0.1/rpms'
p1670
(NS'Linux RPMs for Python 2.1'
g1504
tp1671
sS'doc/other'
p1672
(NS'Other Python Documentation Collections'
g1574
tp1673
sS'dev/faq'
p1674
(NS'Frequently Asked Questions for Python Developers'
g629
tp1675
sS'dev/peps/pep-0305'
p1676
(NVPEP 305 -- CSV File API
Ntp1677
sS'dev/peps/pep-0321'
p1678
(NVPEP 321 -- Date/Time Parsing and Formatting
Ntp1679
sS'dev/peps/pep-0320'
p1680
(NVPEP 320 -- Python 2.4 Release Schedule
Ntp1681
sS'community/sigs/current/catalog-sig/requirements'
p1682
(NS'Catalog Requirements'
g1343
tp1683
sS'dev/peps/pep-0322'
p1684
(NVPEP 322 -- Reverse Iteration
Ntp1685
sS'dev/peps/pep-0325'
p1686
(NVPEP 325 -- Resource-Release Support for Generators
Ntp1687
sS'community/sigs/current/meta-sig'
p1688
(NS'SIG on PSF SIGs and Mailing Lists'
S'Meta SIG'
p1689
tp1690
sS'about/success/astra'
p1691
(NS'Python Success Stories'
Ntp1692
sS'dev/peps/pep-0326'
p1693
(NVPEP 326 -- A Case for Top and Bottom Values
Ntp1694
sS'dev/peps/pep-0329'
p1695
(NVPEP 329 -- Treating Builtins as Constants in the Standard Library
Ntp1696
sS'dev/summary/2004-11-16_2004-11-30'
p1697
(NS'python-dev Summary for 2004-11-16 through 2004-11-30'
Ntp1698
sS'psf/forms/application'
p1699
(NS'Python Software Foundation: Membership Application for Nominated Member'
Ntp1700
sS'doc/faq/installed'
p1701
(NS'Why is Python installed on my computer?'
S'Why is Python on my computer?'
p1702
tp1703
sS'about/success/cog'
p1704
(NS'Python Success Stories'
Ntp1705
sS'dev/peps/pep-0101'
p1706
(NVPEP 101 -- Doing Python Releases 101
Ntp1707
sS'psf/records/board/minutes/2002-10-08'
p1708
(NS'Python Software Foundation: Minutes of Board of Directors\n Meeting (October 8, 2002)'
Ntp1709
sS'dev/peps/pep-0102'
p1710
(NVPEP 102 -- Doing Python Micro Releases
Ntp1711
sS'dev/peps/pep-0666'
p1712
(NVPEP 666 -- Reject Foolish Indentation
Ntp1713
sS'psf/records/members/2001-03-05'
p1714
(NS'Python Software Foundation: Minutes of the 1st Annual Meeting'
Ntp1715
sS'psf/records/board/minutes/2005-07-12'
p1716
(NS'Python Software Foundation: Minutes of Board of Directors Meeting (July 12, 2005)'
Ntp1717
sS'community/sigs/retired/progenv-sig'
p1718
((((i__main__
Link
(dp1719
g22
S'/community/sigs/retired/progenv-sig/mission/'
p1720
sg24
g1490
sg26
I00
sg27
Nsb(tttS'Progenv SIG - Python programming-environment issues'
g756
tp1721
sS'download/releases/2.4.1'
p1722
((((i__main__
Link
(dp1723
g22
S'/download/releases/2.4.1/notes/'
p1724
sg24
S'Release Notes'
p1725
sg26
I00
sg27
Nsb(tt((i__main__
Link
(dp1726
g22
S'/download/releases/2.4.1/bugs/'
p1727
sg24
g325
sg26
I00
sg27
Nsb(tt((i__main__
Link
(dp1728
g22
S'/download/releases/2.4.1/license/'
p1729
sg24
g1226
sg26
I00
sg27
Nsb(tt((i__main__
Link
(dp1730
g22
S'/download/releases/2.4/msi/'
p1731
sg24
S'Windows MSI Installer'
p1732
sg26
I00
sg27
Nsb(tt((i__main__
Link
(dp1733
g22
S'/download/releases/2.4.1/rpms/'
p1734
sg24
S'Linux RPMS'
p1735
sg26
I00
sg27
Nsb(tttS'Python 2.4.1'
Ntp1736
sS'download/releases/2.4.3'
p1737
((((i__main__
Link
(dp1738
g22
S'/download/releases/2.4.3/NEWS.txt/'
p1739
sg24
S'Release Notes'
p1740
sg26
I00
sg27
Nsb(tt((i__main__
Link
(dp1741
g22
S'/download/releases/2.4.3/bugs/'
p1742
sg24
g366
sg26
I00
sg27
Nsb(tt((i__main__
Link
(dp1743
g22
S'/download/releases/2.4.3/license/'
p1744
sg24
g924
sg26
I00
sg27
Nsb(tt((i__main__
Link
(dp1745
g22
S'/download/releases/2.4/msi/'
p1746
sg24
S'Windows MSI Installer'
p1747
sg26
I00
sg27
Nsb(tttS'Python 2.4.3 Release'
Ntp1748
sS'community/sigs/retired/import-sig'
p1749
(NS'Import Sig'
g724
tp1750
sS'doc/av/5minutes'
p1751
(NS'5 Minutes with Python - A Video Series'
S'5-Minutes with Python'
p1752
tp1753
sS'download/releases/2.4.4'
p1754
((((i__main__
Link
(dp1755
g22
S'/download/releases/2.4.4/NEWS.txt/'
p1756
sg24
S'Release Notes'
p1757
sg26
I00
sg27
Nsb(tt((i__main__
Link
(dp1758
g22
S'/download/releases/2.4.4/bugs/'
p1759
sg24
S'Bugs'
p1760
sg26
I00
sg27
Nsb(tt((i__main__
Link
(dp1761
g22
S'/download/releases/2.4.4/license/'
p1762
sg24
g1482
sg26
I00
sg27
Nsb(tt((i__main__
Link
(dp1763
g22
S'/download/releases/2.4/msi/'
p1764
sg24
S'Windows MSI Installer'
p1765
sg26
I00
sg27
Nsb(tttS'Python 2.4.4 Release'
Ntp1766
sS'doc/essays/packages'
p1767
(NS'Built-in Package Support in Python 1.5'
Ntp1768
sS'community/jobs/howto'
p1769
(NS'How To Submit to the Python Job Board'
Ntp1770
sS'dev/summary/2006-10-16_2006-10-31'
p1771
(Ng72
Ntp1772
sS'about/success/ezro'
p1773
(NS'Python Success Stories'
Ntp1774
sS'dev/peps/pep-3139'
p1775
(NVPEP 3139 -- Cleaning out sys and the "interpreter" module
Ntp1776
sS'dev/peps/pep-3138'
p1777
(NVPEP 3138 -- String representation in Python 3000
Ntp1778
sS'dev/peps/pep-3135'
p1779
(NVPEP 3135 -- New Super
Ntp1780
sS'dev/peps/pep-3134'
p1781
(NVPEP 3134 -- Exception Chaining and Embedded Tracebacks
Ntp1782
sS'dev/peps/pep-3137'
p1783
(NVPEP 3137 -- Immutable Bytes and Mutable Buffer
Ntp1784
sS'dev/peps/pep-3136'
p1785
(NVPEP 3136 -- Labeled break and continue
Ntp1786
sS'dev/peps/pep-3131'
p1787
(NVPEP 3131 -- Supporting Non-ASCII Identifiers
Ntp1788
sS'dev/peps/pep-3130'
p1789
(NVPEP 3130 -- Access to Current Module/Class/Function
Ntp1790
sS'dev/peps/pep-3133'
p1791
(NVPEP 3133 -- Introducing Roles
Ntp1792
sS'community/sigs/retired/parser-sig/towards-standard'
p1793
(NS'Towards a Standard Parser Generator</title>'
g1663
tp1794
sS'psf/records/board/minutes/2007-11-12'
p1795
(NS'2007-11-12 PSF Board Meeting Minutes'
Ntp1796
sS'dev/peps/pep-0323'
p1797
(NVPEP 323 -- Copyable Iterators
Ntp1798
sS'about/website'
p1799
(NS'About the Website'
S'Website'
tp1800
sS'psf/grants'
p1801
(NS'PSF Grants Program'
S'Grants Program'
p1802
tp1803
sS'dev/summary/2003-08-16_2003-08-31'
p1804
(NS'python-dev Summary for 2003-08-16 through 2003-08-31'
Ntp1805
sS'psf/records/board/minutes/2006-12-11'
p1806
(NS'2006-12-11 PSF Board Meeting Minutes'
Ntp1807
sS'about/success/journyx'
p1808
(NS'Python Success Stories'
Ntp1809
sS'dev/summary/2002-11-01_2002-11-15'
p1810
(NS'python-dev Summary, 2002-11-01 through 2002-11-15'
Ntp1811
sS'psf/press-release/pr20030213'
p1812
(NS'Python Software Foundation: Press Release 13-Feb-2003'
Ntp1813
sS'psf/records/board/minutes/2007-10-08'
p1814
(NS'2007-10-08 PSF Board Meeting Minutes'
Ntp1815
sS'dev/peps/pep-3115'
p1816
(NVPEP 3115 -- Metaclasses in Python 3000
Ntp1817
sS'doc/faq'
p1818
((((i__main__
Link
(dp1819
g22
S'/doc/faq/general/'
p1820
sg24
g955
sg26
I00
sg27
Nsb(tt((i__main__
Link
(dp1821
g22
S'/doc/faq/programming/'
p1822
sg24
g1108
sg26
I00
sg27
Nsb(tt((i__main__
Link
(dp1823
g22
S'/doc/faq/library/'
p1824
sg24
g1435
sg26
I00
sg27
Nsb(tt((i__main__
Link
(dp1825
g22
S'/doc/faq/extending/'
p1826
sg24
g1635
sg26
I00
sg27
Nsb(tt((i__main__
Link
(dp1827
g22
S'/doc/faq/windows/'
p1828
sg24
g1070
sg26
I00
sg27
Nsb(tt((i__main__
Link
(dp1829
g22
S'/doc/faq/gui/'
p1830
sg24
S'GUI Programming'
p1831
sg26
I00
sg27
Nsb(tt((i__main__
Link
(dp1832
g22
S'/doc/faq/installed/'
p1833
sg24
g1702
sg26
I00
sg27
Nsb(tt((i__main__
Link
(dp1834
g22
S'http://wiki.python.org/moin/'
p1835
sg24
S'Wiki'
p1836
sg26
I00
sg27
Nsb(tttS'Python Frequently Asked Questions'
g1568
tp1837
sS'about/success/eztrip'
p1838
(NS'Python Success Stories'
Ntp1839
sS'community/sigs/retired/matrix-sig/faq'
p1840
(NS'[PYTHON MATRIX-SIG] FAQ'
S'FAQ'
p1841
tp1842
sS'dev/peps/pep-0274'
p1843
(NVPEP 274 -- Dict Comprehensions
Ntp1844
sS'doc/essays/foreword2'
p1845
(NS'Foreword for "Programming Python" (2nd ed.)'
Ntp1846
sS'doc/faq/es/general'
p1847
(NS'FAQ General de Python'
S'General'
p1848
tp1849
sS'download/releases/2.5/license'
p1850
(NS'Python 2.5 license'
g1249
tp1851
sS'dev/buildbot'
p1852
(NS'Python Buildbot'
g623
tp1853
sS'dev/searchplugin'
p1854
(NS'Python Dev Firefox Search Plugin'
Ntp1855
sS'community/pycon/fatal'
p1856
(NS'PyCon Registration - Fatal Error'
Ntp1857
sS'doc/av'
p1858
((((i__main__
Link
(dp1859
g22
S'/doc/av/5minutes/'
p1860
sg24
g1752
sg26
I00
sg27
Nsb(tt((i__main__
Link
(dp1861
g22
S'/doc/slideshows/'
p1862
sg24
S'Slideshow collections'
p1863
sg26
I00
sg27
Nsb(tt((i__main__
Link
(dp1864
g22
S'/doc/av/howto/'
p1865
sg24
S'How to create screencasts'
p1866
sg26
I00
sg27
Nsb(tttS'Audio/Video Resources for Python'
g1590
tp1867
sS'dev/summary/2003-09-16_2003-09-30'
p1868
(NS'python-dev Summary from 2003-09-16 through 2003-09-30'
Ntp1869
sS'psf/records/board/conference/2003-12'
p1870
(NS'Python Software Foundation: Python Conference Committee Report (December 2003)'
Ntp1871
sS'dev/summary/2004-01-01_2004-01-31'
p1872
(NS'python-dev Summary for 2004-01-01 through 2004-01-31'
Ntp1873
sS'download/releases/2.1.3/notes'
p1874
(NS'Notes'
g807
tp1875
sS'community/sigs/current/distutils-sig/requirements'
p1876
(NS'Python Distutils-SIG: Requirements'
g314
tp1877
sS'download/releases/2.4.4/bugs'
p1878
(NS'Bugs in Python 2.4.4'
g1760
tp1879
sS'dev/peps/pep-0214'
p1880
(NVPEP 214 -- Extended Print Statement
Ntp1881
sS'psf/records/board/minutes/2005-10-11'
p1882
(NS'Python Software Foundation: Minutes of Board of Directors Meeting, October 11, 2005 (Draft)'
Ntp1883
sS'download/releases/2.3.6/bugs'
p1884
(NS'Bugs in Python 2.3.6'
g496
tp1885
sS'dev/summary/2003-07-01_2003-07-31'
p1886
(NS'python-dev Summary for 2003-07-01 through 2003-07-31'
Ntp1887
sS'news'
p1888
((((i__main__
Link
(dp1889
g711
S'/news/security/'
p1890
sg713
S'Security Advisories'
p1891
sg715
I00
sg716
Nsb(tttS'Python News'
S'News'
tp1892
sS'dev/peps/pep-0324'
p1893
(NVPEP 324 -- subprocess - New process module
Ntp1894
sS'psf/contrib/contrib-form'
p1895
(NS'PSF Contributor Agreement'
Ntp1896
sS'psf/records/board/minutes/2002-05-14'
p1897
(NS'Python Software Foundation: Minutes of Board of Directors\n Meeting (May 14, 2002)'
Ntp1898
sS'download/releases/2.3.4/bugs'
p1899
(NS'Bugs in Python 2.3.4'
g518
tp1900
sS'dev/summary/2005-05-01_2005-05-15'
p1901
(NS'python-dev Summary for 2005-05-01 through 2005-05-15'
Ntp1902
sS'download/releases/2.1.1/fsf'
p1903
(NS'FSF statement'
Ntp1904
sS'dev/peps/pep-0372'
p1905
(NVPEP 372 -- Adding an ordered dictionary to collections
Ntp1906
sS'dev/summary/2004-08-01_2004-08-15'
p1907
(NS'python-dev Summary for 2004-08-01 through 2004-08-15'
Ntp1908
sS'download/releases/2.4.5'
p1909
((((i__main__
Link
(dp1910
g22
S'/download/releases/2.4.5/NEWS.txt/'
p1911
sg24
S'Release Notes'
p1912
sg26
I00
sg27
Nsb(tt((i__main__
Link
(dp1913
g22
S'/download/releases/2.4.5/bugs/'
p1914
sg24
S'Bugs'
p1915
sg26
I00
sg27
Nsb(tt((i__main__
Link
(dp1916
g22
S'/download/releases/2.4.5/license/'
p1917
sg24
g1550
sg26
I00
sg27
Nsb(tttS'Python 2.4.5 Release'
g426
tp1918
sS'dev/peps/pep-0279'
p1919
(NVPEP 279 -- The enumerate() built-in function
Ntp1920
sS'community/pycon/register-early'
p1921
(NS'PyCon Registration Form'
Ntp1922
sS'about/success/testgo'
p1923
(NS'Python Success Stories'
Ntp1924
sS'psf/records/board/minutes/2005-06-14'
p1925
(NS'Python Software Foundation: Minutes of Board of Directors\n Meeting (June 14, 2005)'
Ntp1926
sS'dev/peps/pep-0278'
p1927
(NVPEP 278 -- Universal Newline Support
Ntp1928
sS'dev/peps/pep-0318'
p1929
(NVPEP 318 -- Decorators for Functions and Methods
Ntp1930
sS'psf/records/board/minutes/2008-03-14'
p1931
(NS'2008-03-14 PSF Board Meeting Minutes'
Ntp1932
sS'about/travel'
p1933
(NS'Travel'
S'Travel'
p1934
tp1935
sS'psf/records/board/minutes/2008-03-10'
p1936
(NS'2008-03-10 PSF Board Meeting Minutes'
Ntp1937
sS'download/releases/2.4/highlights'
p1938
(NS'Highlights: Python 2.4'
g1257
tp1939
sS'community'
p1940
((((i__main__
Link
(dp1941
g22
S'/community/pycon/'
p1942
sg24
g79
sg26
I00
sg27
Nsb(tt((i__main__
Link
(dp1943
g22
S'/community/workshops/'
p1944
sg24
g230
sg26
I00
sg27
Nsb(tt((i__main__
Link
(dp1945
g22
S'/community/awards/'
p1946
sg24
S'Awards'
p1947
sg26
I00
sg27
Nsb(tt((i__main__
Link
(dp1948
g22
S'/community/lists/'
p1949
sg24
g272
sg26
I00
sg27
Nsb(tt((i__main__
Link
(dp1950
g22
S'http://wiki.python.org/moin/LocalUserGroups'
p1951
sg24
S'User Groups'
p1952
sg26
I00
sg27
Nsb(tt((i__main__
Link
(dp1953
g22
S'/community/sigs/'
p1954
sg24
S'Special Interest Groups'
p1955
sg26
I00
sg27
Nsb(tt((i__main__
Link
(dp1956
g22
S'/community/irc/'
p1957
sg24
S'Internet Relay Chat'
p1958
sg26
I00
sg27
Nsb(tt((i__main__
Link
(dp1959
g22
S'http://wiki.python.org/moin/'
p1960
sg24
S'Python Wiki'
p1961
sg26
I00
sg27
Nsb(tt((i__main__
Link
(dp1962
g22
S'/community/logos/'
p1963
sg24
S'Logos'
p1964
sg26
I00
sg27
Nsb(tt((i__main__
Link
(dp1965
g22
S'/community/jobs/'
p1966
sg24
S'Jobs'
p1967
sg26
I00
sg27
Nsb(tt((i__main__
Link
(dp1968
g22
S'http://planet.python.org/'
p1969
sg24
S'Weblogs'
p1970
sg26
I00
sg27
Nsb(tt((i__main__
Link
(dp1971
g22
S'http://wiki.python.org/moin/PythonEvents'
p1972
sg24
S'Event Calendar'
p1973
sg26
I00
sg27
Nsb(tt((i__main__
Link
(dp1974
g22
S'http://wiki.python.org/moin/PythonTraining'
p1975
sg24
S'Training Classes'
p1976
sg26
I00
sg27
Nsb(tt((i__main__
Link
(dp1977
g22
S'http://wiki.python.org/moin/PythonWriters'
p1978
sg24
S'Writers/TechEditors'
p1979
sg26
I00
sg27
Nsb(tt((i__main__
Link
(dp1980
g22
S'http://www.cafepress.com/pydotorg'
p1981
sg24
S'Python Merchandise'
p1982
sg26
I00
sg27
Nsb(tttS'Python Community'
S'Community'
tp1983
sS'dev/summary/2000-09-1'
p1984
(NS'Python-dev summary: 2000-09-01 to 2000-09-15'
Ntp1985
sS'psf/records/board/minutes/2002-09-10'
p1986
(NS'Python Software Foundation: Minutes of Board of Directors\n Meeting (September 10, 2002)'
Ntp1987
sS'download/contributed'
p1988
(NS'Contributed Python Software'
g192
tp1989
sS'dev/summary/2006-03-01_2006-03-15'
p1990
(Ng72
Ntp1991
sS'doc/essays/foreword'
p1992
(NS'Foreword for "Programming Python" (1st ed.)'
Ntp1993
sS'news/security/PSF-2006-001'
p1994
(NS'PSF-2006-001 - Buffer overrun in repr() for UCS-4 encoded unicode strings'
Ntp1995
sS'community/jobs'
p1996
((((i__main__
Link
(dp1997
g22
S'http://www.careerbuilder.com/JobSeeker/Jobs/JobResults.aspx?S%3Asbkw=python&S%3Asbcn=&S%3Asbsn=ALL&S%3Asbfr=30&S%3Asbsbmt=Search'
p1998
sg24
S'Careerbuilder.com'
p1999
sg26
I00
sg27
Nsb(tt((i__main__
Link
(dp2000
g22
S'http://www.search.computerjobs.com/job_results.aspx?s_kw=python'
p2001
sg24
S'ComputerJobs.com'
p2002
sg26
I00
sg27
Nsb(tt((i__main__
Link
(dp2003
g22
S'http://seeker.dice.com/jobsearch/servlet/JobSearch?FREE_TEXT=python&op=100'
p2004
sg24
S'DICE'
p2005
sg26
I00
sg27
Nsb(tt((i__main__
Link
(dp2006
g22
S'http://www.indeed.com/jobs?q=python'
p2007
sg24
S'Indeed (Aggregator)'
p2008
sg26
I00
sg27
Nsb(tt((i__main__
Link
(dp2009
g22
S'http://www.juju.com/keyword/python'
p2010
sg24
S'Juju.com (Aggregator)'
p2011
sg26
I00
sg27
Nsb(tt((i__main__
Link
(dp2012
g22
S'http://www.mojolin.com/python_job.php'
p2013
sg24
S'Mojolin'
p2014
sg26
I00
sg27
Nsb(tt((i__main__
Link
(dp2015
g22
S'http://jobsearch.monster.com/jobsearch.asp?q=Python&amp;sort=rv&amp;vw=b&amp;cy=US&amp;re=14&amp;brd=1,1862,1863'
p2016
sg24
S'Monster.com'
p2017
sg26
I00
sg27
Nsb(tt((i__main__
Link
(dp2018
g22
S'http://www.opensourcexperts.com/Jobs/index_html/Python'
p2019
sg24
S'opensourceXperts.com'
p2020
sg26
I00
sg27
Nsb(tt((i__main__
Link
(dp2021
g22
S'http://python.jobmart.com/'
p2022
sg24
S'Python/Zope Job Mart'
p2023
sg26
I00
sg27
Nsb(tt((i__main__
Link
(dp2024
g22
S'http://www.uklug.co.uk/cgi-bin/gethtmljobs.pl?K=python'
p2025
sg24
S'Uklug'
p2026
sg26
I00
sg27
Nsb(tttS'Python Job Board'
g1967
tp2027
sS'dev/why'
p2028
(NS'Why Develop Python?'
g600
tp2029
sS'download/releases/1.5'
p2030
(NS'Python 1.5.2'
g444
tp2031
sS'dev/peps/pep-0242'
p2032
(NVPEP 242 -- Numeric Kinds
Ntp2033
sS'dev/peps/pep-0243'
p2034
(NVPEP 243 -- Module Repository Upload Mechanism
Ntp2035
sS'dev/peps/pep-0240'
p2036
(NVPEP 240 -- Adding a Rational Literal to Python
Ntp2037
sS'psf/records/board/minutes/2002-02-12'
p2038
(NS'Python Software Foundation: Minutes of Board of Directors\n Meeting (Feb. 12, 2002)'
Ntp2039
sS'dev/peps/pep-0246'
p2040
(NVPEP 246 -- Object Adaptation
Ntp2041
sS'dev/peps/pep-0368'
p2042
(NVPEP 368 -- Standard image protocol and class
Ntp2043
sS'dev/peps/pep-0244'
p2044
(NVPEP 244 -- The `directive' statement
Ntp2045
sS'dev/peps/pep-0245'
p2046
(NVPEP 245 -- Python Interface Syntax
Ntp2047
sS'dev/peps/pep-0365'
p2048
(NVPEP 365 -- Adding the pkg_resources module
Ntp2049
sS'community/pycon/input_err'
p2050
(NS'PyCon Registration - Input Errors'
Ntp2051
sS'dev/peps/pep-0248'
p2052
(NVPEP 248 -- Python Database API Specification v1.0
Ntp2053
sS'dev/peps/pep-0249'
p2054
(NVPEP 249 -- Python Database API Specification v2.0
Ntp2055
sS'dev/peps/pep-0361'
p2056
(NVPEP 361 -- Python 2.6 and 3.0 Release Schedule
Ntp2057
sS'dev/peps/pep-0360'
p2058
(NVPEP 360 -- Externally Maintained Packages
Ntp2059
sS'dev/peps/pep-0363'
p2060
(NVPEP 363 -- Syntax For Dynamic Attribute Access
Ntp2061
sS'dev/peps/pep-0362'
p2062
(NVPEP 362 -- Function Signature Object
Ntp2063
sS'dev/summary/2003-12-01_2003-12-31'
p2064
(NS'python-dev Summary for 2003-12-01 through 2003-12-31'
Ntp2065
sS'community/sigs/retired/gui-sig'
p2066
(NS'SIG on Graphical User Interfaces for Python'
g746
tp2067
sS'psf/records/board/treasurer'
p2068
(NS'Python Software Foundation Treasurer Reports'
Ntp2069
sS'download/releases/2.0.1/press'
p2070
(NS'Python 2.1 Press Release'
g1498
tp2071
sS'dev/peps/pep-0020'
p2072
(NVPEP 20 -- The Zen of Python
Ntp2073
sS'community/sigs/current/email-sig/status'
p2074
(NS'email SIG: Status'
S'Status'
p2075
tp2076
sS'download/releases/2.4.4/rpms'
p2077
(NS'Linux RPMs for Python 2.4.4'
Ntp2078
sS'dev/peps/pep-0328'
p2079
(NVPEP 328 -- Imports: Multi-Line and Absolute/Relative
Ntp2080
sS'psf/records/board/minutes/2005-05-10'
p2081
(NS'Python Software Foundation: Minutes of Board of Directors\n Meeting (May 10, 2005)'
Ntp2082
sS'dev/peps/pep-3141'
p2083
(NVPEP 3141 -- A Type Hierarchy for Numbers
Ntp2084
sS'download/releases/2.3.1/rpms'
p2085
(NS'Linux RPMs for Python 2.3.1'
g488
tp2086
sS'psf/records/board/minutes/2008-05-12'
p2087
(NS'2008-05-12 PSF Board Meeting Minutes'
Ntp2088
sS'community/sigs/current/image-sig/t1lib'
p2089
(NS't1python - A Type1 Font Renderer for Python'
Ntp2090
sS'psf/records/board/minutes/2002-07-16'
p2091
(NS'Python Software Foundation: Minutes of Board of Directors\n Meeting (July 16, 2002)'
Ntp2092
sS'psf/records/board/minutes/2002-04-09'
p2093
(NS'Python Software Foundation: Minutes of Board of Directors\n Meeting (Apr. 9, 2002)'
Ntp2094
sS'community/sigs/current/c++-sig'
p2095
(NS'SIG for development of Python/C++ integration'
S'C++ SIG'
p2096
tp2097
sS'psf/press-release/pr20040209'
p2098
(NS'Python Software Foundation: Press Release 9-Feb-2004'
Ntp2099
sS'download/releases/2.4/license'
p2100
(NS'Python 2.4 license'
g1264
tp2101
sS'psf/press-release'
p2102
(NS'Python Software Foundation Press Releases'
S'Press Releases'
p2103
tp2104
sS'psf/records/board/minutes/2004-11-09'
p2105
(NS'Python Software Foundation: Minutes of Board of Directors Meeting (November 9, 2004)'
Ntp2106
sS'doc/topics/database'
p2107
((((i__main__
Link
(dp2108
g22
S'/dev/peps/pep-0249.html/'
p2109
sg24
S'DB-API spec v2.0'
p2110
sg26
I00
sg27
Nsb(tt((i__main__
Link
(dp2111
g22
S'/dev/peps/pep-0248.html/'
p2112
sg24
S'DB-API spec v1.0'
p2113
sg26
I00
sg27
Nsb(tt((i__main__
Link
(dp2114
g22
S'/doc/topics/database/modules/'
p2115
sg24
S'Database Modules'
p2116
sg26
I00
sg27
Nsb(tt((i__main__
Link
(dp2117
g22
S'/doc/topics/database/docs/'
p2118
sg24
g1099
sg26
I00
sg27
Nsb(tt((i__main__
Link
(dp2119
g22
S'/doc/topics/database/other-db/'
p2120
sg24
g413
sg26
I00
sg27
Nsb(tt((i__main__
Link
(dp2121
g22
S'/doc/topics/database/persistence/'
p2122
sg24
S'Persistence'
p2123
sg26
I00
sg27
Nsb(tt((i__main__
Link
(dp2124
g22
S'/doc/topics/database/books/'
p2125
sg24
g18
sg26
I00
sg27
Nsb(tt((i__main__
Link
(dp2126
g22
S'/community/sig/current/db-sig/'
p2127
sg24
S'Database SIG'
p2128
sg26
I00
sg27
Nsb(tttS'Database Topic Guide'
Ntp2129
sS'download/releases/2.2/license'
p2130
(NS'Python 2.2 license'
g1329
tp2131
sS'community/sigs/retired/locator-sig/mission'
p2132
(NS'Mission'
g542
tp2133
sS'about/success/strakt'
p2134
(NS'Python Success Stories'
Ntp2135
sS'dev/summary/2004-12-01_2004-12-15'
p2136
(NS'python-dev Summary for 2004-12-01 through 2004-12-15'
Ntp2137
sS'download/windows'
p2138
(NS'Python for Windows (and DOS)'
g172
tp2139
sS'psf/records/board/minutes/2006-09-18'
p2140
(NS'Python Software Foundation Board Meeting Minutes 2006-09-18'
Ntp2141
sS'doc/2.5.2'
p2142
((((i__main__
Link
(dp2143
g22
S'http://docs.python.org/'
p2144
sg24
S'Current Docs'
p2145
sg26
I00
sg27
Nsb(tt((i__main__
Link
(dp2146
g22
S'http://wiki.python.org/moin/BeginnersGuide'
p2147
sg24
S"Beginner's Guide"
p2148
sg26
I00
sg27
Nsb(tt((i__main__
Link
(dp2149
g22
S'/doc/faq/'
p2150
sg24
S'FAQs'
p2151
sg26
I00
sg27
Nsb(tt((i__main__
Link
(dp2152
g22
S'http://wiki.python.org/moin/'
p2153
sg24
S'Wiki'
p2154
sg26
I00
sg27
Nsb(tt((i__main__
Link
(dp2155
g22
S'/doc/other/'
p2156
sg24
S'Other doc resources'
p2157
sg26
I00
sg27
Nsb(tt((i__main__
Link
(dp2158
g22
S'/dev/peps/'
p2159
sg24
S'PEP Index'
p2160
sg26
I00
sg27
Nsb(tt((i__main__
Link
(dp2161
g22
S'http://wiki.python.org/moin/PythonBooks'
p2162
sg24
S'Book list'
p2163
sg26
I00
sg27
Nsb(tt((i__main__
Link
(dp2164
g22
S'/doc/topics/'
p2165
sg24
S'Topic guides'
p2166
sg26
I00
sg27
Nsb(tt((i__main__
Link
(dp2167
g22
S'/doc/newstyle/'
p2168
sg24
S'New-style classes'
p2169
sg26
I00
sg27
Nsb(tt((i__main__
Link
(dp2170
g22
S'http://docs.python.org/library/re.html'
p2171
sg24
S'Regular expressions'
p2172
sg26
I00
sg27
Nsb(tttS'Python 2.5.2 Documentation'
Ntp2173
sS'download/releases/2.4.1/rpms'
p2174
(NS'Python 2.4.1 - Linux RPMs'
g1735
tp2175
sS'download/releases/2.1.2/license'
p2176
(NS'Python 2.1.2 license'
S'License'
p2177
tp2178
sS'psf/records/members/2004-03-25'
p2179
(NS'Minutes of the PSF Member Meeting at PyConDC 2004'
Ntp2180
sS'download/releases/2.2.3/rpms'
p2181
(NS'Linux RPMs for Python 2.2.3'
g1622
tp2182
sS'download/releases/2.2/bugs'
p2183
(NS'Known bugs in Python 2.2'
g1326
tp2184
sS'about/success/siena'
p2185
(NS'Python Success Stories'
Ntp2186
sS'community/pycon/register-onsite'
p2187
(NS'PyCon Registration Form'
Ntp2188
sS'community/sigs/current/doc-sig/status'
p2189
(NS'Documentation Special Interest Group'
g1030
tp2190
sS'dev/peps/pep-3127'
p2191
(NVPEP 3127 -- Integer Literal Support and Syntax
Ntp2192
sS'dev/summary/2003-06-01_2003-06-30'
p2193
(NS'python-dev Summary for 2003-06-01 through 2003-06-30'
Ntp2194
sS'psf/records/board/minutes/2003-02-11'
p2195
(NS'Python Software Foundation: Minutes of Board of Directors\n Meeting (February 11, 2003)'
Ntp2196
sS'dev/summary/2003-09-01_2003-09-15'
p2197
(NS'python-dev Summary for 2003-09-01 through 2003-09-15'
Ntp2198
sS'community/sigs/retired/pattern-sig'
p2199
((((i__main__
Link
(dp2200
g22
S'/community/sigs/retired/pattern-sig/mission/'
p2201
sg24
g90
sg26
I00
sg27
Nsb(tttS'SIG for Idioms, Patterns, and Frameworks in Python'
g753
tp2202
sS'dev/summary/2005-02-01_2005-02-14'
p2203
(NS'python-dev Summary for 2005-02-01 through 2005-02-14'
Ntp2204
sS'community/sigs/current/distutils-sig/design'
p2205
(NS'Python Distutils-SIG: Design Proposal'
Ntp2206
sS'dev/peps/pep-3001'
p2207
(NVPEP 3001 -- Procedure for reviewing and improving standard library modules
Ntp2208
sS'dev/peps/pep-3000'
p2209
(NVPEP 3000 -- Python 3000
Ntp2210
sS'dev/peps/pep-3002'
p2211
(NVPEP 3002 -- Procedure for Backwards-Incompatible Changes
Ntp2212
sS'psf/records/board/minutes/2002-06-11'
p2213
(NS'Python Software Foundation: Minutes of Board of Directors\n Meeting (June 11, 2002)'
Ntp2214
sS'psf/records/incorporation'
p2215
(NS'Python Software Foundation: Articles of Incorporation'
Ntp2216
sS'community/sigs/retired/plot-sig/mission'
p2217
(NS'PLOT-SIG, a Special Interest Group on Data Plotting Solutions for Python'
S'Mission'
p2218
tp2219
sS'dev/peps/pep-0295'
p2220
(NVPEP 295 -- Interpretation of multiline string constants
Ntp2221
sS'dev/peps/pep-0294'
p2222
(NVPEP 294 -- Type Names in the types Module
Ntp2223
sS'dev/peps/pep-0297'
p2224
(NVPEP 297 -- Support for System Upgrades
Ntp2225
sS'dev/peps/pep-0296'
p2226
(NVPEP 296 -- Adding a bytes Object Type
Ntp2227
sS'dev/peps/pep-0291'
p2228
(NVPEP 291 -- Backward Compatibility for Standard Library
Ntp2229
sS'dev/peps/pep-0290'
p2230
(NVPEP 290 -- Code Migration and Modernization
Ntp2231
sS'dev/peps/pep-0293'
p2232
(NVPEP 293 -- Codec Error Handling Callbacks
Ntp2233
sS'dev/peps/pep-0292'
p2234
(NVPEP 292 -- Simpler String Substitutions
Ntp2235
sS'about/success/natsworld'
p2236
(NS'Python Success Stories'
Ntp2237
sS'community/irc'
p2238
(NS'Internet Relay Chat'
g1958
tp2239
sS'dev/process'
p2240
(NS"Python's Development Process"
g612
tp2241
sS'dev/summary/2006-01-16_2006-01-31'
p2242
(Ng72
Ntp2243
sS'community/sigs/guidelines'
p2244
(NS'Python Special Interest Groups - Guidelines'
g1422
tp2245
sS'dev/summary/2003-03-16_2003-03-31'
p2246
(NS'python-dev Summary for 2003-03-16 through 2003-03-31'
Ntp2247
sS'download/releases/2.3.5/notes'
p2248
(NS'Notes'
g528
tp2249
sS'download/releases/2.3.2/rpms'
p2250
(NS'Linux RPMs for Python 2.3.2'
g460
tp2251
sS'doc/2.5/download'
p2252
((((i__main__
Link
(dp2253
g22
S'http://docs.python.org/'
p2254
sg24
S'Current Docs'
p2255
sg26
I00
sg27
Nsb(tt((i__main__
Link
(dp2256
g22
S'http://wiki.python.org/moin/BeginnersGuide'
p2257
sg24
S"Beginner's Guide"
p2258
sg26
I00
sg27
Nsb(tt((i__main__
Link
(dp2259
g22
S'/doc/faq/'
p2260
sg24
S'FAQs'
p2261
sg26
I00
sg27
Nsb(tt((i__main__
Link
(dp2262
g22
S'http://wiki.python.org/moin/'
p2263
sg24
S'Wiki'
p2264
sg26
I00
sg27
Nsb(tt((i__main__
Link
(dp2265
g22
S'/doc/other/'
p2266
sg24
S'Other doc resources'
p2267
sg26
I00
sg27
Nsb(tt((i__main__
Link
(dp2268
g22
S'/dev/peps/'
p2269
sg24
S'PEP Index'
p2270
sg26
I00
sg27
Nsb(tt((i__main__
Link
(dp2271
g22
S'http://wiki.python.org/moin/PythonBooks'
p2272
sg24
S'Book list'
p2273
sg26
I00
sg27
Nsb(tt((i__main__
Link
(dp2274
g22
S'/doc/topics/'
p2275
sg24
S'Topic guides'
p2276
sg26
I00
sg27
Nsb(tt((i__main__
Link
(dp2277
g22
S'/doc/newstyle/'
p2278
sg24
S'New-style classes'
p2279
sg26
I00
sg27
Nsb(tt((i__main__
Link
(dp2280
g22
S'http://docs.python.org/library/re.html'
p2281
sg24
S'Regular expressions'
p2282
sg26
I00
sg27
Nsb(tttS'Download Python 2.5 Documentation'
Ntp2283
sS'about/apps'
p2284
(NS'Applications for Python'
S'Applications'
tp2285
sS'dev/summary/2000-08-1'
p2286
(NS'Python-dev summary: 2000-08-01 to 2000-08-15'
Ntp2287
sS'news/archive'
p2288
(NS'News Archive'
Ntp2289
sS'contact'
p2290
(NS'Contacting Us'
Ntp2291
sS'doc/faq/gui'
p2292
(NS'GUI Programming FAQ'
g1831
tp2293
sS'download/releases/1.6/download_win'
p2294
(NS'Download Python 1.6 Windows Installer'
Ntp2295
sS'download/releases/2.2.1/descrintro'
p2296
(NS'Unifying types and classes in Python 2.2'
Ntp2297
sS'psf/records/board/minutes/2004-08-10'
p2298
(NS'Python Software Foundation: Minutes of Board of Directors\n Meeting (August 10, 2004)'
Ntp2299
sS'about/thevenue'
p2300
(NS'The Venue'
Ntp2301
sS'community/sigs/retired/plot-sig/issues'
p2302
(NS'Python Data Plotting Solutions SIG Issues'
S'Issues'
p2303
tp2304
sS'download/releases/2.3.7/bugs'
p2305
(NS'Bugs in Python 2.3.7'
g507
tp2306
sS'download/releases/2.0/license'
p2307
(NS'Python 2.0 License'
Ntp2308
sS'community/sigs/current/catalog-sig/others'
p2309
(NS'Other Catalog Systems'
g1340
tp2310
sS'psf/records/board/minutes/2004-04-13'
p2311
(NS'Python Software Foundation: Minutes of Board of Directors Meeting (April 13, 2004)'
Ntp2312
sS'doc/2.5.2/download'
p2313
((((i__main__
Link
(dp2314
g22
S'http://docs.python.org/'
p2315
sg24
S'Current Docs'
p2316
sg26
I00
sg27
Nsb(tt((i__main__
Link
(dp2317
g22
S'http://wiki.python.org/moin/BeginnersGuide'
p2318
sg24
S"Beginner's Guide"
p2319
sg26
I00
sg27
Nsb(tt((i__main__
Link
(dp2320
g22
S'/doc/faq/'
p2321
sg24
S'FAQs'
p2322
sg26
I00
sg27
Nsb(tt((i__main__
Link
(dp2323
g22
S'http://wiki.python.org/moin/'
p2324
sg24
S'Wiki'
p2325
sg26
I00
sg27
Nsb(tt((i__main__
Link
(dp2326
g22
S'/doc/other/'
p2327
sg24
S'Other doc resources'
p2328
sg26
I00
sg27
Nsb(tt((i__main__
Link
(dp2329
g22
S'/dev/peps/'
p2330
sg24
S'PEP Index'
p2331
sg26
I00
sg27
Nsb(tt((i__main__
Link
(dp2332
g22
S'http://wiki.python.org/moin/PythonBooks'
p2333
sg24
S'Book list'
p2334
sg26
I00
sg27
Nsb(tt((i__main__
Link
(dp2335
g22
S'/doc/topics/'
p2336
sg24
S'Topic guides'
p2337
sg26
I00
sg27
Nsb(tt((i__main__
Link
(dp2338
g22
S'/doc/newstyle/'
p2339
sg24
S'New-style classes'
p2340
sg26
I00
sg27
Nsb(tt((i__main__
Link
(dp2341
g22
S'http://docs.python.org/library/re.html'
p2342
sg24
S'Regular expressions'
p2343
sg26
I00
sg27
Nsb(tttS'Download Python 2.5.2 Documentation'
Ntp2344
sS'dev/summary/2003-04-01_2003-04-15'
p2345
(NS'python-dev Summary for 2003-04-01 through 2003-04-15'
Ntp2346
sS'community/sigs/retired/pythonwin-sig'
p2347
(NS'PythonWin Special Interest Group'
g759
tp2348
sS'download/releases/2.5/msi'
p2349
(NS'Using Windows Installer'
g1252
tp2350
sS'download/releases/2.4.2/bugs'
p2351
(NS'Bugs in Python 2.4.2'
g938
tp2352
sS'psf/records/board/minutes/2008-06-16'
p2353
(NS'2008-06-16 PSF Board Meeting Minutes'
Ntp2354
sS'dev/summary/2005-09-01_2005-09-15'
p2355
(NS'python-dev Summary for 2005-09-01 through 2005-09-15'
Ntp2356
sS'dev/summary/2006-09-16_2006-09-30'
p2357
(Ng72
Ntp2358
sS'psf/press-release/pr20020416'
p2359
(NS'Python Software Foundation: Press Release 10-Apr-2002'
Ntp2360
sS'news/rdf'
p2361
(NS'python.org'
Ntp2362
sS'psf/records/board/minutes/2003-01-14'
p2363
(NS'Python Software Foundation: Minutes of Board of Directors\n Meeting (January 14, 2003)'
Ntp2364
sS'psf/records/board/minutes/2003-03-11'
p2365
(NS'Python Software Foundation: Minutes of Board of Directors\n Meeting (March 11, 2003)'
Ntp2366
sS'dev/summary/2007-04-01_2007-04-15'
p2367
(Ng72
Ntp2368
sS'dev/peps/pep-0257'
p2369
(NVPEP 257 -- Docstring Conventions
Ntp2370
sS'doc/faq/es'
p2371
((((i__main__
Link
(dp2372
g22
S'/doc/faq/es/general/'
p2373
sg24
g1848
sg26
I00
sg27
Nsb(tt((i__main__
Link
(dp2374
g22
S'/doc/faq/'
p2375
sg24
S'Indice Principal de FAQs'
p2376
sg26
I00
sg27
Nsb(tt((i__main__
Link
(dp2377
g22
S'http://wiki.python.org/moin/'
p2378
sg24
S'Wiki'
p2379
sg26
I00
sg27
Nsb(tttS'Preguntas Frecuentes de Python'
Ntp2380
sS'dev/peps/pep-0208'
p2381
(NVPEP 208 -- Reworking the Coercion Model
Ntp2382
sS'dev/peps/pep-0209'
p2383
(NVPEP 209 -- Multi-dimensional Arrays
Ntp2384
sS'dev/peps/pep-0206'
p2385
(NVPEP 206 -- Python Advanced Library
Ntp2386
sS'dev/peps/pep-0207'
p2387
(NVPEP 207 -- Rich Comparisons
Ntp2388
sS'dev/peps/pep-0204'
p2389
(NVPEP 204 -- Range Literals
Ntp2390
sS'dev/peps/pep-0205'
p2391
(NVPEP 205 -- Weak References
Ntp2392
sS'dev/peps/pep-0202'
p2393
(NVPEP 202 -- List Comprehensions
Ntp2394
sS'dev/peps/pep-0203'
p2395
(NVPEP 203 -- Augmented Assignments
Ntp2396
sS'dev/peps/pep-0200'
p2397
(NVPEP 200 -- Python 2.0 Release Schedule
Ntp2398
sS'dev/peps/pep-0201'
p2399
(NVPEP 201 -- Lockstep Iteration
Ntp2400
sS'psf/records/board/minutes/2008-02-11'
p2401
(NS'2008-02-11 PSF Board Meeting Minutes'
Ntp2402
sS'psf/press-release/pr20050309'
p2403
(NS'Python Software Foundation: Press Release 9-Mar-2005'
Ntp2404
sS'community/sigs/current/i18n-sig'
p2405
(NS'Python Internationalization-SIG'
S'i18n SIG'
p2406
tp2407
sS'about/success/wingide'
p2408
(NS'Python Success Stories'
Ntp2409
sS'download/releases/2.4.2/rpms'
p2410
(NS'Linux RPMs for Python 2.4.2'
g947
tp2411
sS'doc/2.5'
p2412
((((i__main__
Link
(dp2413
g22
S'http://docs.python.org/'
p2414
sg24
S'Current Docs'
p2415
sg26
I00
sg27
Nsb(tt((i__main__
Link
(dp2416
g22
S'http://wiki.python.org/moin/BeginnersGuide'
p2417
sg24
S"Beginner's Guide"
p2418
sg26
I00
sg27
Nsb(tt((i__main__
Link
(dp2419
g22
S'/doc/faq/'
p2420
sg24
S'FAQs'
p2421
sg26
I00
sg27
Nsb(tt((i__main__
Link
(dp2422
g22
S'http://wiki.python.org/moin/'
p2423
sg24
S'Wiki'
p2424
sg26
I00
sg27
Nsb(tt((i__main__
Link
(dp2425
g22
S'/doc/other/'
p2426
sg24
S'Other doc resources'
p2427
sg26
I00
sg27
Nsb(tt((i__main__
Link
(dp2428
g22
S'/dev/peps/'
p2429
sg24
S'PEP Index'
p2430
sg26
I00
sg27
Nsb(tt((i__main__
Link
(dp2431
g22
S'http://wiki.python.org/moin/PythonBooks'
p2432
sg24
S'Book list'
p2433
sg26
I00
sg27
Nsb(tt((i__main__
Link
(dp2434
g22
S'/doc/topics/'
p2435
sg24
S'Topic guides'
p2436
sg26
I00
sg27
Nsb(tt((i__main__
Link
(dp2437
g22
S'/doc/newstyle/'
p2438
sg24
S'New-style classes'
p2439
sg26
I00
sg27
Nsb(tt((i__main__
Link
(dp2440
g22
S'http://docs.python.org/library/re.html'
p2441
sg24
S'Regular expressions'
p2442
sg26
I00
sg27
Nsb(tttS'Python 2.5 Documentation'
Ntp2443
sS'community/sigs/current/db-sig/status'
p2444
(NS'Python Tabular Databases SIG: Status'
g1445
tp2445
sS'psf/press-release/pr20031219'
p2446
(NS'Python Software Foundation: Press Release 19-Dec-2003'
Ntp2447
sS'doc/essays'
p2448
((((i__main__
Link
(dp2449
g22
S'http://docs.python.org'
p2450
sg24
S'Current Docs'
p2451
sg26
I00
sg27
Nsb(tt((i__main__
Link
(dp2452
g22
S'http://wiki.python.org/moin/BeginnersGuide'
p2453
sg24
S"Beginner's Guide"
p2454
sg26
I00
sg27
Nsb(tt((i__main__
Link
(dp2455
g22
S'/doc/essays/faq/'
p2456
sg24
S'FAQs'
p2457
sg26
I00
sg27
Nsb(tt((i__main__
Link
(dp2458
g22
S'/doc/essays/intros/'
p2459
sg24
S'Introductions'
p2460
sg26
I00
sg27
Nsb(tt((i__main__
Link
(dp2461
g22
S'http://wiki.python.org/moin'
p2462
sg24
S'Wiki'
p2463
sg26
I00
sg27
Nsb(tt((i__main__
Link
(dp2464
g22
S'/doc/essays/other/'
p2465
sg24
S'Other doc resources'
p2466
sg26
I00
sg27
Nsb(tt((i__main__
Link
(dp2467
g22
S'/doc/essays/peps/'
p2468
sg24
S'PEP Index'
p2469
sg26
I00
sg27
Nsb(tt((i__main__
Link
(dp2470
g22
S'/doc/essays/nonenglish/'
p2471
sg24
S'Non-English docs'
p2472
sg26
I00
sg27
Nsb(tt((i__main__
Link
(dp2473
g22
S'/doc/essays/editors/'
p2474
sg24
S'Editors'
p2475
sg26
I00
sg27
Nsb(tt((i__main__
Link
(dp2476
g22
S'http://wiki.python.org/moin/PythonBooks'
p2477
sg24
S'Book list'
p2478
sg26
I00
sg27
Nsb(tt((i__main__
Link
(dp2479
g22
S'/doc/essays/topics/'
p2480
sg24
S'Topic guides'
p2481
sg26
I00
sg27
Nsb(tt((i__main__
Link
(dp2482
g22
S'/doc/essays/newstyle/'
p2483
sg24
S'New-style classes'
p2484
sg26
I00
sg27
Nsb(tt((i__main__
Link
(dp2485
g22
S'http://docs.python.org/library/re.html'
p2486
sg24
S'Regular expressions'
p2487
sg26
I00
sg27
Nsb(tt((i__main__
Link
(dp2488
g22
S'http://wiki.python.org/moin/DatabaseProgramming/'
p2489
sg24
S'Databases'
p2490
sg26
I00
sg27
Nsb(tt((i__main__
Link
(dp2491
g22
S'http://wiki.python.org/moin/Audio'
p2492
sg24
S'Audio Recordings'
p2493
sg26
I00
sg27
Nsb(tttS'Python Documentation Index'
Ntp2494
sS'psf'
p2495
((((i__main__
Link
(dp2496
g22
S'/psf/about/'
p2497
sg24
g1555
sg26
I00
sg27
S'About the Python Software Foundation'
p2498
sb(tt((i__main__
Link
(dp2499
g22
S'/psf/summary/'
p2500
sg24
g1485
sg26
I00
sg27
S'Executive Summary'
p2501
sb(tt((i__main__
Link
(dp2502
g22
S'/psf/mission/'
p2503
sg24
g82
sg26
I00
sg27
Nsb(tt((i__main__
Link
(dp2504
g22
S'/psf/donations/'
p2505
sg24
g1408
sg26
I00
sg27
Nsb(tt((i__main__
Link
(dp2506
g22
S'/psf/volunteer/'
p2507
sg24
g583
sg26
I00
sg27
Nsb(tt((i__main__
Link
(dp2508
g22
S'/psf/membership/'
p2509
sg24
S'Membership FAQ'
p2510
sg26
I00
sg27
Nsb(tt((i__main__
Link
(dp2511
g22
S'/psf/sponsorship/'
p2512
sg24
g93
sg26
I00
sg27
Nsb(tt((i__main__
Link
(dp2513
g22
S'/psf/members/'
p2514
sg24
S'Membership Roster'
p2515
sg26
I00
sg27
Nsb(tt((i__main__
Link
(dp2516
g22
S'/psf/records/'
p2517
sg24
S'Public Records'
p2518
sg26
I00
sg27
Nsb(tt((i__main__
Link
(dp2519
g22
S'/psf/committees/'
p2520
sg24
g1438
sg26
I00
sg27
Nsb(tt((i__main__
Link
(dp2521
g22
S'/psf/reports/'
p2522
sg24
S'Miscellaneous Reports'
p2523
sg26
I00
sg27
Nsb(tt((i__main__
Link
(dp2524
g22
S'/psf/bylaws/'
p2525
sg24
S'Bylaws'
p2526
sg26
I00
sg27
Nsb(tt((i__main__
Link
(dp2527
g22
S'/psf/trademarks/'
p2528
sg24
g407
sg26
I00
sg27
Nsb(tt((i__main__
Link
(dp2529
g22
S'/psf/grants/'
p2530
sg24
g1802
sg26
I00
sg27
Nsb(tt((i__main__
Link
(dp2531
g22
S'/psf/cooperations/'
p2532
sg24
g195
sg26
I00
sg27
Nsb(tt((i__main__
Link
(dp2533
g22
S'http://wiki.python.org/moin/PythonSoftwareFoundation'
p2534
sg24
S'PSF Wiki'
p2535
sg26
I00
sg27
Nsb(tt((i__main__
Link
(dp2536
g22
S'http://pyfound.blogspot.com'
p2537
sg24
S'PSF Weblog'
p2538
sg26
I00
sg27
Nsb(tt((i__main__
Link
(dp2539
g22
S'/psf/weblog-policy/'
p2540
sg24
S'Weblog Policy'
p2541
sg26
I00
sg27
Nsb(tt((i__main__
Link
(dp2542
g22
S'/psf/press-release/'
p2543
sg24
g2103
sg26
I00
sg27
Nsb(tt((i__main__
Link
(dp2544
g22
S'/psf/forms/'
p2545
sg24
g1593
sg26
I00
sg27
Nsb(tt((i__main__
Link
(dp2546
g22
S'/psf/contrib/'
p2547
sg24
S'Contribution Forms'
p2548
sg26
I00
sg27
Nsb(tt((i__main__
Link
(dp2549
g22
S'/psf/license/'
p2550
sg24
S'License'
p2551
sg26
I00
sg27
Nsb(tt((i__main__
Link
(dp2552
g22
S'/psf/fraud/'
p2553
sg24
S'Suspicious Checks'
p2554
sg26
I00
sg27
Nsb(tttS'Python Software Foundation'
S'Foundation'
tp2555
sS'download/download_mac'
p2556
(NS'Python on the Macintosh'
Ntp2557
sS'download/source'
p2558
(NS'Download Python Sources'
g183
tp2559
sS'dev/summary/2004-09-01_2004-09-15'
p2560
(NS'python-dev Summary for 2004-09-01 through 2004-09-15'
Ntp2561
sS'dev/summary/2000-07-2'
p2562
(NS'Python-dev summary: 2000-07-16 to 2000-07-31'
Ntp2563
sS'psf/records/board/minutes/2001-03-08'
p2564
(NS'Python Software Foundation: Minutes of Board of Directors Meeting (March 8, 2001)'
Ntp2565
sS'dev/peps/pep-0331'
p2566
(NVPEP 331 -- Locale-Independent Float/String Conversions
Ntp2567
sS'psf/records/board/minutes/2005-03-24'
p2568
(NS'Python Software Foundation: Minutes of Board of Directors\n Meeting (March 25, 2005)'
Ntp2569
sS'dev/peps/pep-0337'
p2570
(NVPEP 337 -- Logging Usage in the Standard Library
Ntp2571
sS'dev/peps/pep-0334'
p2572
(NVPEP 334 -- Simple Coroutines via SuspendIteration
Ntp2573
sS'dev/peps/pep-0335'
p2574
(NVPEP 335 -- Overloadable Boolean Operators
Ntp2575
sS'download/releases/2.2.1/license'
p2576
(NS'Python 2.2.1 license'
g1385
tp2577
sS'dev/peps/pep-0339'
p2578
(NVPEP 339 -- Design of the CPython Compiler
Ntp2579
sS'psf/records/board/minutes/2001-03-05'
p2580
(NS'Python Software Foundation: Minutes of the 1st Meeting of Board of Directors'
Ntp2581
sS'dev/peps/pep-0355'
p2582
(NVPEP 355 -- Path - Object oriented filesystem paths
Ntp2583
sS'dev/summary/2002-11-16_2002-11-30'
p2584
(NS'python-dev Summary, 2002-11-16 through 2002-11-30'
Ntp2585
sS'community/sigs/current/email-sig'
p2586
((((i__main__
Link
(dp2587
g22
S'/community/sigs/current/email-sig/status/'
p2588
sg24
g2075
sg26
I00
sg27
Nsb(tt((i__main__
Link
(dp2589
g22
S'http://mail.python.org/mailman/listinfo/email-sig'
p2590
sg24
S'Subscribe'
p2591
sg26
I00
sg27
Nsb(tt((i__main__
Link
(dp2592
g22
S'http://mail.python.org/pipermail/email-sig/'
p2593
sg24
S'Archives'
p2594
sg26
I00
sg27
Nsb(tt((i__main__
Link
(dp2595
g22
S'/community/sigs/current/email-sig/docs/'
p2596
sg24
S'Docs for 3.0'
p2597
sg26
I00
sg27
Nsb(tt((i__main__
Link
(dp2598
g22
S'http://www.python.org/doc/current/lib/module-email.html'
p2599
sg24
S'Docs for 2.5.6'
p2600
sg26
I00
sg27
Nsb(tt((i__main__
Link
(dp2601
g22
S'http://pypi.python.org/packages/source/e/email/email-4.0a2.tar.gz'
p2602
sg24
S'Download 4.0a2'
p2603
sg26
I00
sg27
Nsb(tt((i__main__
Link
(dp2604
g22
S'/ftp/python/contrib/email-3.0.tar.gz/'
p2605
sg24
S'Download 3.0'
p2606
sg26
I00
sg27
Nsb(tt((i__main__
Link
(dp2607
g22
S'/ftp/python/contrib/email-2.5.6.tar.gz/'
p2608
sg24
S'Download 2.5.6'
p2609
sg26
I00
sg27
Nsb(tttS'email package SIG'
S'Email SIG'
p2610
tp2611
sS'psf/records/board/minutes/2007-02-25'
p2612
(NS'2007-02-25 PSF Board Meeting Minutes'
Ntp2613
sS'download/releases/2.3.4/license'
p2614
(NS'Python 2.3.4 license'
g521
tp2615
sS'birmingham'
p2616
((((i__main__
Link
(dp2617
S'href'
p2618
S'/birmingham/gettingstarted/'
p2619
sS'link_text'
p2620
S'Getting Started'
p2621
sS'selected'
p2622
I00
sS'title'
p2623
Nsb(tt((i__main__
Link
(dp2624
g2618
S'/birmingham/apps/'
p2625
sg2620
S'Applications'
p2626
sg2622
I00
sg2623
Nsb(tt((i__main__
Link
(dp2627
g2618
S'/birmingham/success/'
p2628
sg2620
S'Success Stories'
p2629
sg2622
I00
sg2623
Nsb(tt((i__main__
Link
(dp2630
g2618
S'/birmingham/quotes/'
p2631
sg2620
S'Quotes'
p2632
sg2622
I00
sg2623
Nsb(tt((i__main__
Link
(dp2633
g2618
S'/birmingham/website/'
p2634
sg2620
S'Website'
p2635
sg2622
I00
sg2623
Nsb(tt((i__main__
Link
(dp2636
g2618
S'/birmingham/help/'
p2637
sg2620
S'Help'
p2638
sg2622
I00
sg2623
Nsb(tttS'About'
Ntp2639
sS'psf/records/board/minutes/2003-11-11'
p2640
(NS'Python Software Foundation: Minutes of Board of Directors\n Meeting (November 11, 2003)'
Ntp2641
sS'community/sigs/retired/do-sig'
p2642
((((i__main__
Link
(dp2643
g22
S'/community/sigs/retired/do-sig/issues/'
p2644
sg24
g1115
sg26
I00
sg27
Nsb(tttS'DO-SIG - Python Distributed Objects Special Interest Group'
g719
tp2645
sS'about/success/superleague'
p2646
(NS'Python Success Stories'
Ntp2647
sS'dev/summary/2005-08-16_2005-08-31'
p2648
(NS'python-dev Summary for 2005-08-16 through 2005-08-31'
Ntp2649
sS'psf/bylaws'
p2650
(NS'Python Software Foundation: Bylaws of The Python Software Foundation'
g2526
tp2651
sS'psf/records/board/minutes/2007-05-14'
p2652
(NS'2007-05-14 PSF Board Meeting Minutes'
Ntp2653
sS'psf/records/board/minutes/2006-03-13'
p2654
(NS'Python Software Foundation Board Meeting Minutes 2006-03-13'
Ntp2655
sS'about/success/esr'
p2656
(NS'Python Success Stories'
Ntp2657
sS'psf/records/board/minutes/2005-01-11'
p2658
(NS'Python Software Foundation: Minutes of Board of Directors\n Meeting (January 11, 2005)'
Ntp2659
sS'dev/peps/pep-0333'
p2660
(NVPEP 333 -- Python Web Server Gateway Interface v1.0
Ntp2661
sS'download/releases/1.6.1/license_faq'
p2662
(NS'Python 1.6 License FAQ'
S'License FAQ'
p2663
tp2664
sS'dev/summary/2000-07-1'
p2665
(NS'Python-dev summary: 2000-07-01 to 2000-07-15'
Ntp2666
sS'psf/contrib/contrib-form-jython'
p2667
(NS'PSF Contributor Agreement for Jython'
Ntp2668
sS'psf/records/board/minutes/2003-09-09'
p2669
(NS'Python Software Foundation: Minutes of Board of Directors\n Meeting (September 9, 2003)'
Ntp2670
sS'doc/faq/it/extending'
p2671
(NS'FAQ Estendere/Includere Python'
Ntp2672
sS'about/success/mmtk'
p2673
(NS'Python Success Stories'
Ntp2674
sS'dev/peps/pep-3128'
p2675
(NVPEP 3128 -- BList: A Faster List-like Type
Ntp2676
sS'dev/peps/pep-3129'
p2677
(NVPEP 3129 -- Class Decorators
Ntp2678
sS'dev/peps/pep-3126'
p2679
(NVPEP 3126 -- Remove Implicit String Concatenation
Ntp2680
sS'dev/peps/pep-0336'
p2681
(NVPEP 336 -- Make None Callable
Ntp2682
sS'dev/peps/pep-3124'
p2683
(NVPEP 3124 -- Overloading, Generic Functions, Interfaces, and Adaptation
Ntp2684
sS'dev/peps/pep-3125'
p2685
(NVPEP 3125 -- Remove Backslash Continuation
Ntp2686
sS'doc/essays/comparisons'
p2687
(NS'Comparing Python to Other Languages'
Ntp2688
sS'dev/peps/pep-3123'
p2689
(NVPEP 3123 -- Making PyObject_HEAD conform to standard C
Ntp2690
sS'dev/peps/pep-3120'
p2691
(NVPEP 3120 -- Using UTF-8 as the default source encoding
Ntp2692
sS'dev/peps/pep-3121'
p2693
(NVPEP 3121 -- Extension Module Initialization and Finalization
Ntp2694
sS'doc/topics/database/persistence'
p2695
(NS'Other Persistent Storage Modules'
g2123
tp2696
sS'download/releases/2.2.2/license'
p2697
(NS'Python 2.2.2 license'
g1369
tp2698
sS'community/sigs/current'
p2699
((((i__main__
Link
(dp2700
g711
S'/community/sigs/current/c++-sig/'
p2701
sg713
g2096
sg715
I00
sg716
Nsb(tt((i__main__
Link
(dp2702
g711
S'/community/sigs/current/catalog-sig/'
p2703
sg713
g1344
sg715
I00
sg716
Nsb(tt((i__main__
Link
(dp2704
g711
S'/community/sigs/current/db-sig/'
p2705
sg713
g1446
sg715
I00
sg716
Nsb(tt((i__main__
Link
(dp2706
g711
S'/community/sigs/current/distutils-sig/'
p2707
sg713
g315
sg715
I00
sg716
Nsb(tt((i__main__
Link
(dp2708
g711
S'/community/sigs/current/doc-sig/'
p2709
sg713
g1035
sg715
I00
sg716
Nsb(tt((i__main__
Link
(dp2710
g711
S'/community/sigs/current/edu-sig/'
p2711
sg713
g401
sg715
I00
sg716
Nsb(tt((i__main__
Link
(dp2712
g711
S'/community/sigs/current/email-sig/'
p2713
sg713
g2610
sg715
I00
sg716
Nsb(tt((i__main__
Link
(dp2714
g711
S'/community/sigs/current/i18n-sig/'
p2715
sg713
g2406
sg715
I00
sg716
Nsb(tt((i__main__
Link
(dp2716
g711
S'/community/sigs/current/image-sig/'
p2717
sg713
g259
sg715
I00
sg716
Nsb(tt((i__main__
Link
(dp2718
g711
S'/community/sigs/current/meta-sig/'
p2719
sg713
g1689
sg715
I00
sg716
Nsb(tt((i__main__
Link
(dp2720
g711
S'/community/sigs/current/pythonmac-sig/'
p2721
sg713
g227
sg715
I00
sg716
Nsb(tt((i__main__
Link
(dp2722
g711
S'/community/sigs/current/web-sig/'
p2723
sg713
g1208
sg715
I00
sg716
Nsb(tt((i__main__
Link
(dp2724
g711
S'/community/sigs/current/xml-sig/'
p2725
sg713
S'XML'
p2726
sg715
I00
sg716
Nsb(tttS'Python Special Interest Groups'
g1428
tp2727
sS'psf/records/board/minutes/2007-04-09'
p2728
(NS'2007-04-09 PSF Board Meeting Minutes'
Ntp2729
sS'download/releases/2.0.1/license'
p2730
(NS'Python 2.0.1 license'
g1501
tp2731
sS'download/releases/2.5.2/license'
p2732
(NS'Python 2.5 license'
g298
tp2733
sS'about/success/suzanne'
p2734
(NS'Python Success Stories'
Ntp2735
sS'community/sigs/retired/compiler-sig'
p2736
(NS'Compiler-SIG'
g714
tp2737
sS'community/sigs/current/xml-sig'
p2738
(NS'SIG for XML Processing in Python'
g2726
tp2739
sS'dev/summary/2003-05-16_2003-05-31'
p2740
(NS'python-dev Summary for 2003-05-16 through 2003-05-31'
Ntp2741
sS'psf/press-release/pr20030729'
p2742
(NS'Python Software Foundation: Press Release 29-Jul-2003'
Ntp2743
sS'psf/records/board/minutes/2005-08-09'
p2744
(NS'Python Software Foundation: Minutes of Board of Directors Meeting (August 9, 2005)'
Ntp2745
sS'dev/peps/pep-0338'
p2746
(NVPEP 338 -- Executing modules as scripts
Ntp2747
sS'psf/records/board/minutes/2001-03-05-2'
p2748
(NS'Python Software Foundation: Minutes of Board of Directors Meeting (March 5, 2001)'
Ntp2749
sS'psf/records/board/minutes/2007-12-10'
p2750
(NS'2007-12-10 PSF Board Meeting Minutes'
Ntp2751
sS'about'
p2752
((((i__main__
Link
(dp2753
g3
S'/about/accomodation/'
p2754
sg5
g164
sg7
I00
sg8
Nsb(tt((i__main__
Link
(dp2755
g3
S'/about/birmingham/'
p2756
sg5
g1654
sg7
I00
sg8
Nsb(tt((i__main__
Link
(dp2757
g3
S'/about/eatingout/'
p2758
sg5
g1213
sg7
I00
sg8
Nsb(tt((i__main__
Link
(dp2759
g3
S'/about/venue/'
p2760
sg5
S'The Venue'
p2761
sg7
I00
sg8
Nsb(tt((i__main__
Link
(dp2762
g3
S'/about/travel/'
p2763
sg5
g1934
sg7
I00
sg8
Nsb(tttS'About'
g6
tp2764
sS'about/success/carmanah'
p2765
(NS'Python Success Stories'
Ntp2766
sS'community/sigs/current/distutils-sig/doc/tasks'
p2767
(NS'Python Distutils-SIG: Tasks and Division of Labour'
Ntp2768
sS'community/awards'
p2769
((((i__main__
Link
(dp2770
g22
S'/community/awards/psf-awards/'
p2771
sg24
g410
sg26
I00
sg27
Nsb(tt((i__main__
Link
(dp2772
g22
S'/community/awards/frank-willison/'
p2773
sg24
g1413
sg26
I00
sg27
Nsb(tttS'Python Community Awards'
g1947
tp2774
sS'psf/grants/report-2007-02'
p2775
(Ng72
Ntp2776
sS'psf/records/board/minutes/2004-07-13'
p2777
(NS'Python Software Foundation: Minutes of Board of Directors\n Meeting (July 13, 2004)'
Ntp2778
sS'psf/records/board/minutes'
p2779
(NS'Python Software Foundation Board Meeting Minutes'
Ntp2780
sS'about/success/forecastwatch'
p2781
(NS'Python Success Stories'
Ntp2782
sS'download/releases/2.5.2/bugs'
p2783
(NS'Bugs in Python 2.5.2c1'
g295
tp2784
sS'dev/pydotorg/website'
p2785
(NS'Python.org Website Maintenance'
g695
tp2786
sS'search/search_news'
p2787
(NS'Search Python Newsgroup'
Ntp2788
sS'community/sigs/coordination'
p2789
(NS'Python Special Interest Groups - Coordinator Resource Guide'
g1425
tp2790
sS'psf/records/board/minutes/2005-09-13'
p2791
(NS'Python Software Foundation: Minutes of Board of Directors Meeting (September 13, 2005)'
Ntp2792
sS'community/sigs/retired/persistence-sig'
p2793
(NS'SIG for Development of Persistence and Transaction Frameworks'
g730
tp2794
sS'psf/records/board/minutes/2004-01-13'
p2795
(NS'Python Software Foundation: Minutes of Board of Directors\n Meeting (Januar 13, 2004)'
Ntp2796
sS'psf/records/members'
p2797
(NS"Python Software Foundation: Members' Meetings"
S"Members' Meetings"
p2798
tp2799
sS'dev/summary/2006-11-01_2006-11-15'
p2800
(Ng72
Ntp2801
sS'dev/peps/pep-3122'
p2802
(NVPEP 3122 -- Delineation of the main module
Ntp2803
sS'download/releases/2.5/highlights'
p2804
(NS'Highlights: Python 2.5'
g1243
tp2805
sS'download/releases/1.5/whatsnew'
p2806
(NS"What's new in Python 1.5 and beyond"
Ntp2807
sS'download/releases/2.4.5/bugs'
p2808
(NS'Bugs in Python 2.4.5'
g1915
tp2809
sS'community/lists/archive'
p2810
(NS'Old Python Archives'
Ntp2811
sS'psf/press-release/pr20030531'
p2812
(NS'Python Software Foundation: Press Release 31-May-2003'
Ntp2813
sS'psf/records/members/2006-02'
p2814
(NS'Member meeting at PyCon 2006'
Ntp2815
sS'community/sigs/retired/objc-sig/status'
p2816
(NS'Objective-C SIG Status'
g25
tp2817
sS'community/sigs/retired/matrix-sig'
p2818
((((i__main__
Link
(dp2819
g22
S'/community/sigs/retired/matrix-sig/faq/'
p2820
sg24
g1841
sg26
I00
sg27
Nsb(tttS'SIG for Built-in Matrix Types in Python'
g743
tp2821
sS'dev/summary/2005-12-16_2005-12-31'
p2822
(NS'python-dev Summary for 2005-12-16 through 2005-12-31'
Ntp2823
sS'psf/records/members/2007-02-23/absentee-ballot'
p2824
(Ng72
Ntp2825
sS'download/releases/2.4.5/rpms'
p2826
(NS'Linux RPMs for Python 2.4.4'
Ntp2827
sS'psf/records/board/minutes/2005-12-13'
p2828
(NS'Python Software Foundation: Minutes of Board of Directors Meeting, December 13, 2005'
Ntp2829
sS'about/success/usa'
p2830
(NS'Python Success Stories'
Ntp2831
sS'dev/peps/pep-0260'
p2832
(NVPEP 260 -- Simplify xrange()
Ntp2833
sS'psf/records/members/2008-03-14/proxy'
p2834
(NS"Proxy Form - 2008-03-14 PSF Members' Meeting"
Ntp2835
sS'psf/grants/call-2004'
p2836
(NS'Python Software Foundation: Call for Grant Proposals 2004'
Ntp2837
sS'news/security'
p2838
(NS'Python Security Advisories'
g1891
tp2839
sS'dev/summary/2004-10-01_2004-10-15'
p2840
(NS'python-dev Summary for 2004-10-01 through 2004-10-15'
Ntp2841
sS'about/venue'
p2842
(NS'The Venue'
g2761
tp2843
sS'dev/summary/2006-01-01_2006-01-15'
p2844
(NS'python-dev Summary for 2006-01-01 through 2006-01-15'
Ntp2845
sS'dev/summary/2000-09-2'
p2846
(NS'Python-dev summary: 2000-09-16 to 2000-09-30'
Ntp2847
sS'dev/peps/pep-0369'
p2848
(NVPEP 369 -- Post import hooks
Ntp2849
sS'dev/summary/2002-12-16_2002-12-31'
p2850
(NS'python-dev Summary for 2002-12-15 through 2002-12-31'
Ntp2851
sS'dev/summary/2003-08-01_2003-08-15'
p2852
(NS'python-dev Summary for 2003-08-01 through 2003-08-15'
Ntp2853
sS'psf/fraud'
p2854
(NS'Statement about Suspicious Checks'
g2554
tp2855
sS'community/sigs/retired/plot-sig'
p2856
((((i__main__
Link
(dp2857
g22
S'/community/sigs/retired/plot-sig/mission/'
p2858
sg24
g2218
sg26
I00
sg27
Nsb(tt((i__main__
Link
(dp2859
g22
S'/community/sigs/retired/plot-sig/issues/'
p2860
sg24
g2303
sg26
I00
sg27
Nsb(tttS'Plot-SIG - SIG on Data Plotting Solutions for Python'
g733
tp2861
sS'about/help'
p2862
(NS'Help'
S'Help'
tp2863
sS'community/sigs/current/distutils-sig/doc'
p2864
(NS'Python Distutils-SIG: Documentation'
Ntp2865
sS'dev/peps/pep-0330'
p2866
(NVPEP 330 -- Python Bytecode Verification
Ntp2867
sS'dev/summary/2006-04-16_2006-04-30'
p2868
(Ng72
Ntp2869
sS'download/releases/2.3.1/license'
p2870
(NS'Python 2.3.1 license'
g485
tp2871
sS'about/success/projectpipe'
p2872
(NS'Python Success Stories'
Ntp2873
sS'dev/implementations'
p2874
(NS'Python Implementations'
g606
tp2875
sS'download/releases/2.4.1/notes'
p2876
(NS'Python 2.4.1 - Release Notes'
g1725
tp2877
sS'community/sigs/retired/getopt-sig/compare'
p2878
(NS'Comparing Option-Parsing Libraries'
g139
tp2879
sS'doc/av/howto'
p2880
((((i__main__
Link
(dp2881
g22
S'/doc/av/howto/5minutes/'
p2882
sg24
S'5-Minutes with Python'
p2883
sg26
I00
sg27
Nsb(tt((i__main__
Link
(dp2884
g22
S'/doc/av/howto/slideshows/'
p2885
sg24
S'Slideshow collections'
p2886
sg26
I00
sg27
Nsb(tt((i__main__
Link
(dp2887
g22
S'/doc/av/howto/howto/'
p2888
sg24
S'How to create screencasts'
p2889
sg26
I00
sg27
Nsb(tttS'How to Create Screencasts'
g1866
tp2890
sS'psf/license'
p2891
(NS'Python License'
g2551
tp2892
sS'doc/topics/database/modules'
p2893
(NS'Python Database Modules'
g2116
tp2894
sS'psf/records/members/2007-02-23/agenda'
p2895
(NS"Agenda of 2007 PSF Members' Meeting, 23 February 2007"
Ntp2896
sS'dev/summary/2005-04-01_2005-04-15'
p2897
(NS'python-dev Summary for 2005-04-01 through 2005-04-15'
Ntp2898
sS'about/success/tttech'
p2899
(NS'Python Success Stories'
Ntp2900
sS'dev/peps/pep-0364'
p2901
(NVPEP 364 -- Transitioning to the Py3K Standard Library
Ntp2902
sS'community/pycon/register-regular'
p2903
(NS'PyCon Registration Form'
Ntp2904
sS'psf/records/board/minutes/2002-02-07'
p2905
(NS'Python Software Foundation: Minutes of Board of Directors\n Meeting (Feb. 7, 2002)'
Ntp2906
sS'dev/peps/pep-0367'
p2907
(NVPEP 367 -- New Super
Ntp2908
sS'download/releases/2.2.3/license'
p2909
(NS'Python 2.2.3 license'
g1619
tp2910
sS'dev/peps/pep-0366'
p2911
(NVPEP 366 -- Main module explicit relative imports
Ntp2912
sS'download/releases/2.3/highlights'
p2913
(NS"What's new in Python 2.3"
g1309
tp2914
sS'dev/summary/2002-09-16-2002-09-30'
p2915
(NS'python-dev Summary for 2002-09-16 through 2002-09-30'
Ntp2916
sS'download/download_windows'
p2917
(NS'Python for Windows (and DOS)'
Ntp2918
sS'psf/press-release/pr20031003'
p2919
(NS'Python Software Foundation: Press Release 3-Oct-2003'
Ntp2920
sS'dev/peps/pep-0277'
p2921
(NVPEP 277 -- Unicode file name support for Windows NT
Ntp2922
sS'dev/peps/pep-0276'
p2923
(NVPEP 276 -- Simple Iterator for ints
Ntp2924
sS'dev/peps/pep-0275'
p2925
(NVPEP 0275 -- Switching on Multiple Values
Ntp2926
sS'psf/donations/paypal'
p2927
(NS'Python Software Foundation: Donate via PayPal'
Ntp2928
sS'dev/peps/pep-0273'
p2929
(NVPEP 273 -- Import Modules from Zip Archives
Ntp2930
sS'dev/peps/pep-0272'
p2931
(NVPEP 272 -- API for Block Encryption Algorithms v1.0
Ntp2932
sS'dev/peps/pep-0271'
p2933
(NVPEP 271 -- Prefixing sys.path by command line option
Ntp2934
sS'dev/peps/pep-0270'
p2935
(NVPEP 270 -- uniq method for list objects
Ntp2936
sS'dev/peps/pep-0374'
p2937
(NVPEP 374 -- Migrating from svn to a distributed VCS
Ntp2938
sS'psf/records/board/minutes/2006-08-14'
p2939
(NS'Python Software Foundation Board Meeting Minutes 2006-08-14'
Ntp2940
sS'about/success/honeywell'
p2941
(NS'Python Success Stories'
Ntp2942
sS'dev/peps/pep-0373'
p2943
(NVPEP 373 -- Python 2.7 Release Schedule
Ntp2944
sS'dev/peps/pep-0370'
p2945
(NVPEP 370 -- Per user site-packages directory
Ntp2946
sS'dev/peps/pep-0371'
p2947
(NVPEP 371 -- Addition of the multiprocessing package to the standard library
Ntp2948
sS'dev/summary/2006-08-16_2006-08-31'
p2949
(Ng72
Ntp2950
sS'download/releases/2.0.1/fsf'
p2951
(NS'FSF statement'
Ntp2952
sS'download/releases/2.2.2/rpms'
p2953
(NS'Linux RPMs for Python 2.2.2'
g1372
tp2954
sS'download/releases/1.6'
p2955
(NS'Python 1.6'
Ntp2956
sS'dev/summary/2004-03-16_2004-03-31'
p2957
(NS'python-dev Summary for 2004-03-16 through 2004-03-31'
Ntp2958
sS'links'
p2959
(NS'Python Links'
Ntp2960
sS'dev/peps/pep-0247'
p2961
(NVPEP 247 -- API for Cryptographic Hash Functions
Ntp2962
sS'dev/peps/pep-0012'
p2963
(NVPEP 12 -- Sample reStructuredText PEP Template
Ntp2964
sS'dev/peps/pep-0011'
p2965
(NVPEP 11 -- Removing support for little used platforms
Ntp2966
sS'dev/peps/pep-0010'
p2967
(NVPEP 10 -- Voting Guidelines
Ntp2968
sS'community/logos'
p2969
(NS'The Python Logo'
g1964
tp2970
sS'dev/peps/pep-0222'
p2971
(NVPEP 222 -- Web Library Enhancements
Ntp2972
sS'psf/records/members/2005-03-24'
p2973
(NS'Python Software Foundation Members Meeting Minutes 2005-03-24'
Ntp2974
sS'psf/records/board'
p2975
(NS'PSF Board Records'
Ntp2976
sS'community/sigs/retired/types-sig'
p2977
((((i__main__
Link
(dp2978
g22
S'/community/sigs/retired/types-sig/status/'
p2979
sg24
g705
sg26
I00
sg27
Nsb(tt((i__main__
Link
(dp2980
g22
S'/community/sigs/retired/types-sig/interfaces/'
p2981
sg24
g986
sg26
I00
sg27
Nsb(tt((i__main__
Link
(dp2982
g22
S'/community/sigs/retired/types-sig/statictypes/'
p2983
sg24
g129
sg26
I00
sg27
Nsb(tt((i__main__
Link
(dp2984
g22
S'/community/sigs/retired/types-sig/typeclass/'
p2985
sg24
g1666
sg26
I00
sg27
Nsb(tttS'The Python type system SIG'
g738
tp2986
sS'download/releases/2.1.3/license'
p2987
(NS'Python 2.1.3 license'
g810
tp2988
sS'dev/summary/2005-03-16_2005-03-31'
p2989
(NS'python-dev Summary for 2005-03-16 through 2005-03-31'
Ntp2990
sS'psf/membership'
p2991
(NS'PSF Membership FAQ'
g2510
tp2992
sS'psf/records/board/minutes/2007-09-10'
p2993
(NS'2007-09-10 PSF Board Meeting Minutes'
Ntp2994
sS'download/releases/3.0'
p2995
(NS'Python 3.0rc3 Release'
g418
tp2996
sS'psf/records/board/minutes/2008-01-14'
p2997
(NS'2008-01-14 PSF Board Meeting Minutes'
Ntp2998
sS'psf/grants/advocacy'
p2999
(NS'PSF Advocacy Initiative'
Ntp3000
sS'download/releases/2.1/press'
p3001
(NS'Python 2.1 Press Release'
g1302
tp3002
sS'psf/reports'
p3003
(NS'Miscellaneous PSF Reports'
g2523
tp3004
sS'psf/records/board/minutes/2004-02-10'
p3005
(NS'Python Software Foundation: Minutes of Board of Directors\n Meeting (February 10, 2004)'
Ntp3006
sS'psf/records/board/minutes/2007-02-12'
p3007
(NS'2007-02-12 PSF Board Meeting Minutes'
Ntp3008
sS'download/releases/2.2.1/mac'
p3009
(NS'MacPython 2.2.1'
g1390
tp3010
sS'psf/records/board/history'
p3011
(NS'History of PSF Officers & Directors'
Ntp3012
sS'dev/summary/2004-09-16_2004-09-30'
p3013
(NS'python-dev Summary for 2004-09-16 through 2004-09-30'
Ntp3014
sS'dev/peps/pep-3111'
p3015
(NVPEP 3111 -- Simple input built-in in Python 3000
Ntp3016
sS'about/success/frequentis'
p3017
(NS'Python Success Stories'
Ntp3018
sS'about/success/loveintros'
p3019
(NS'Python Success Stories'
Ntp3020
sS'psf/records/board/minutes/2008-09-08'
p3021
(NS'2008-09-08 PSF Board Meeting Minutes'
Ntp3022
sS'psf/records/board/minutes/2004-05-11'
p3023
(NS'Python Software Foundation: Minutes of Board of Directors\n Meeting (May 11, 2004)'
Ntp3024
sS'psf/members'
p3025
(NS'PSF Membership Roster'
g2515
tp3026
sS'download/releases/2.1.1'
p3027
((((i__main__
Link
(dp3028
g22
S'/download/releases/2.1.1/NEWS.txt/'
p3029
sg24
S'Release Notes'
p3030
sg26
I00
sg27
Nsb(tt((i__main__
Link
(dp3031
g22
S'/download/releases/2.1.1/license/'
p3032
sg24
g977
sg26
I00
sg27
Nsb(tt((i__main__
Link
(dp3033
g22
S'/download/releases/2.1.1/rpms/'
p3034
sg24
g680
sg26
I00
sg27
Nsb(tt((i__main__
Link
(dp3035
g22
S'/download/releases/2.1.1/press/'
p3036
sg24
g1513
sg26
I00
sg27
Nsb(tttS'Python 2.1.1'
Ntp3037
sS'download/releases/2.1.2'
p3038
((((i__main__
Link
(dp3039
g22
S'/download/releases/2.1.2/NEWS.txt/'
p3040
sg24
S'Release Notes'
p3041
sg26
I00
sg27
Nsb(tt((i__main__
Link
(dp3042
g22
S'/download/releases/2.1.2/license/'
p3043
sg24
g2177
sg26
I00
sg27
Nsb(tt((i__main__
Link
(dp3044
g22
S'/download/releases/2.1.2/rpms/'
p3045
sg24
g1003
sg26
I00
sg27
Nsb(tttS'Python 2.1.2'
Ntp3046
sS'psf/records'
p3047
((((i__main__
Link
(dp3048
g22
S'/psf/records/board/minutes/'
p3049
sg24
S'Board Meetings'
p3050
sg26
I00
sg27
Nsb(tt((i__main__
Link
(dp3051
g22
S'/psf/records/board/resolutions/'
p3052
sg24
S'Board Resolutions'
p3053
sg26
I00
sg27
Nsb(tt((i__main__
Link
(dp3054
g22
S'/psf/records/members/'
p3055
sg24
g2798
sg26
I00
sg27
Nsb(tttS'Python Software Foundation Public Records'
g2518
tp3056
sS'psf/meetings'
p3057
((((i__main__
Link
(dp3058
g22
S'/psf/meetings/agenda/feb2006/'
p3059
sg24
S'Next Meeting'
p3060
sg26
I00
sg27
Nsb(tt((i__main__
Link
(dp3061
g22
S'/psf/meetings/agenda/'
p3062
sg24
S'Agenda'
p3063
sg26
I00
sg27
Nsb(tt((i__main__
Link
(dp3064
g22
S'/psf/meetings/minutes/'
p3065
sg24
S'Minutes'
p3066
sg26
I00
sg27
Nsb(tttS'PSF Meetings'
Ntp3067
sS'psf/records/members/2006-02-24'
p3068
(NS'Python Software Foundation Members Meeting Minutes 2006-02-24'
Ntp3069
sS'psf/records/members/2006-02/proxy-february-2006'
p3070
(NS'Appointment of Proxy for February 24, 2006 member meeting in Dallas, TX'
Ntp3071
sS'psf/reports/gsoc-2007'
p3072
(NS'PSF participation in the 2007 Google Summer of Code'
Ntp3073
sS'news/security/PSF-2005-001'
p3074
(NS'PSF-2005-001 - SimpleXMLRPCServer.py allows unrestricted traversal'
Ntp3075
sS'psf/records/board/minutes/2004-06-18'
p3076
(NS'Python Software Foundation: Minutes of Board of Directors\n Meeting (June 15, 2004)'
Ntp3077
sS'psf/records/board/minutes/2007-01-08'
p3078
(NS'2007-01-08 PSF Board Meeting Minutes'
Ntp3079
sS'dev/summary/2005-07-16_2005-07-31'
p3080
(NS'python-dev Summary for 2005-07-16 through 2005-07-31'
Ntp3081
sS'download/releases/1.6.1'
p3082
((((i__main__
Link
(dp3083
g22
S'/download/releases/1.6.1/download/'
p3084
sg24
g201
sg26
I00
sg27
Nsb(tt((i__main__
Link
(dp3085
g22
S'/download/releases/1.6.1/download_win/'
p3086
sg24
g1349
sg26
I00
sg27
Nsb(tt((i__main__
Link
(dp3087
g22
S'/download/releases/1.6.1/license_faq/'
p3088
sg24
g2663
sg26
I00
sg27
Nsb(tttS'Python 1.6.1'
g441
tp3089
sS'doc/versions'
p3090
(NS'Python Documentation by Version'
Ntp3091
sS'psf/contrib'
p3092
(NS'Contributing to the PSF'
g2548
tp3093
sS'about/gettingstarted'
p3094
(NS'Python For Beginners'
S'Getting Started'
tp3095
sS'dev/peps/pep-0212'
p3096
(NVPEP 212 -- Loop Counter Iteration
Ntp3097
sS'psf/weblog-policy'
p3098
(NS'PSF Weblog Policy'
g2541
tp3099
sS'dev/peps/pep-0160'
p3100
(NVPEP 160 -- Python 1.6 Release Schedule
Ntp3101
s.