(dp1
S''
((((i__main__
Link
(dp2
S'href'
p3
S'/about/'
p4
sS'link_text'
p5
S'About'
p6
sS'selected'
p7
I00
sS'title'
p8
S'About The Europython Conference'
p9
sb(tt((i__main__
Link
(dp10
g3
S'/talks/'
p11
sg5
S'Talks'
p12
sg7
I00
sg8
S'Submitting and Schedules'
p13
sb(tttS'Europython 2009'
Ntp14
sS'about/success/st-andrews'
p15
(NS'Python Success Stories'
Ntp16
sS'community/sigs/retired/parser-sig'
p17
((((i__main__
Link
(dp18
S'href'
p19
S'/community/sigs/retired/parser-sig/towards-standard/'
p20
sS'link_text'
p21
S'Towards a Standard Parser'
p22
sS'selected'
p23
I00
sS'title'
p24
Nsb(tttS'Parser-SIG - SIG on Parser Generation for Python'
S'Parser SIG'
p25
tp26
sS'community/sigs/retired/objc-sig'
p27
((((i__main__
Link
(dp28
g19
S'/community/sigs/retired/objc-sig/status/'
p29
sg21
S'Status'
p30
sg23
I00
sg24
Nsb(tttS'SIG on Python bindings for Objective-C/NeXTSTEP/OpenStep'
S'Objc SIG'
p31
tp32
sS'psf/press-release/pr20030923'
p33
(NS'Python Software Foundation: Press Release 23-Sep-2003'
Ntp34
sS'psf/wirexfer'
p35
(NS'Python Software Foundation: Wire Transfer Information'
Ntp36
sS'dev/peps/pep-0286'
p37
(NVPEP 286 -- Enhanced Argument Tuples
Ntp38
sS'dev/peps/pep-0287'
p39
(NVPEP 287 -- reStructuredText Docstring Format
Ntp40
sS'dev/peps/pep-0284'
p41
(NVPEP 284 -- Integer for-loops
Ntp42
sS'dev/peps/pep-0285'
p43
(NVPEP 285 -- Adding a bool type
Ntp44
sS'dev/peps/pep-0282'
p45
(NVPEP 282 -- A Logging System
Ntp46
sS'dev/peps/pep-0283'
p47
(NVPEP 283 -- Python 2.3 Release Schedule
Ntp48
sS'dev/peps/pep-0280'
p49
(NVPEP 280 -- Optimizing access to globals
Ntp50
sS'dev/peps/pep-0281'
p51
(NVPEP 281 -- Loop Counter Iteration with range and xrange
Ntp52
sS'download/releases/2.5.1/license'
p53
(NS'Python 2.5 license'
S'License'
p54
tp55
sS'download/releases/2.3.2/bugs'
p56
(NS'Bugs in Python 2.3.2'
S'Bugs'
p57
tp58
sS'dev/summary/2005-10-16_2005-10-31'
p59
(NS'python-dev Summary for 2005-10-16 through 2005-10-31'
Ntp60
sS'psf/records/board/minutes/2003-04-08'
p61
(NS'Python Software Foundation: Minutes of Board of Directors\n Meeting (April 8, 2003)'
Ntp62
sS'dev/peps/pep-0288'
p63
(NVPEP 288 -- Generators Attributes and Exceptions
Ntp64
sS'dev/peps/pep-0289'
p65
(NVPEP 289 -- Generator Expressions
Ntp66
sS'dev/summary/2005-05-16_2005-05-31'
p67
(NS'python-dev Summary for 2005-05-16 through 2005-05-31'
Ntp68
sS'dev/summary/2005-09-16_2005-09-30'
p69
(NS'python-dev Summary for 2005-09-16 through 2005-09-30'
Ntp70
sS'community/sigs/current/distutils-sig/sig_charter'
p71
(NS'Python Distutils-SIG: Charter'
S'SIG Charter'
p72
tp73
sS'dev/summary/2006-06-16_2006-06-30'
p74
(NS'python.org'
p75
Ntp76
sS'dev/summary/2002-08-16-2002-09-01'
p77
(NS'python-dev Summary for 2002-08-16 through 2002-09-01'
Ntp78
sS'dev/summary/2006-11-16_2006-11-30'
p79
(Ng75
Ntp80
sS'community/pycon'
p81
(NS'PyCon Home at python.org'
S'PyCon'
p82
tp83
sS'psf/mission'
p84
(NS'Mission'
S'Mission Statement'
p85
tp86
sS'dev/summary/2005-06-01_2005-06-15'
p87
(NS'python-dev Summary for 2005-06-01 through 2005-06-15'
Ntp88
sS'download/releases/2.3.4/rpms'
p89
(NS'Linux RPMs for Python 2.3.4'
S'Linux RPMS'
p90
tp91
sS'community/sigs/retired/pattern-sig/mission'
p92
(NS'PATTERN-SIG, SIG for Idioms, Patterns, and Frameworks in Python'
S'Mission'
p93
tp94
sS'psf/sponsorship'
p95
(NS'Sponsorship'
S'Sponsor Memberships'
p96
tp97
sS'download/mac'
p98
(NS'Python on the Macintosh'
S'Macintosh'
p99
tp100
sS'download/releases/2.2.1/rpms'
p101
(NS'Linux RPMs for Python 2.2.1'
S'Linux RPMS'
p102
tp103
sS'dev/peps/pep-0233'
p104
(NVPEP 233 -- Python Online Help
Ntp105
sS'dev/peps/pep-0232'
p106
(NVPEP 232 -- Function Attributes
Ntp107
sS'dev/peps/pep-0231'
p108
(NVPEP 231 -- __findattr__()
Ntp109
sS'dev/peps/pep-0230'
p110
(NVPEP 230 -- Warning Framework
Ntp111
sS'dev/peps/pep-0237'
p112
(NVPEP 237 -- Unifying Long Integers and Integers
Ntp113
sS'dev/peps/pep-0236'
p114
(NVPEP 236 -- Back to the __future__
Ntp115
sS'dev/peps/pep-0235'
p116
(NVPEP 235 -- Import on Case-Insensitive Platforms
Ntp117
sS'dev/peps/pep-0234'
p118
(NVPEP 234 -- Iterators
Ntp119
sS'dev/peps/pep-0239'
p120
(NVPEP 239 -- Adding a Rational Type to Python
Ntp121
sS'dev/peps/pep-0238'
p122
(NVPEP 238 -- Changing the Division Operator
Ntp123
sS'community/sigs/current/capi-sig'
p124
(NS'SIG for Supporting Use of the Python/C API'
Ntp125
sS'psf/records/board/minutes/2002-12-10'
p126
(NS'Python Software Foundation: Minutes of Board of Directors\n Meeting (December 10, 2002)'
Ntp127
sS'download/releases/2.3.3/rpms'
p128
(NS'Linux RPMs for Python 2.3.3'
S'Linux RPMS'
p129
tp130
sS'community/sigs/retired/types-sig/statictypes'
p131
(NS'Details on static typing in Python'
S'Static Types'
p132
tp133
sS'download/releases/2.3.2/license'
p134
(NS'Python 2.3.2 license'
S'License'
p135
tp136
sS'dev/summary/2004-04-01_2004-04-30'
p137
(NS'python-dev Summary for 2004-04-01 through 2004-04-30'
Ntp138
sS'community/sigs/retired/getopt-sig'
p139
((((i__main__
Link
(dp140
g19
S'/community/sigs/retired/getopt-sig/compare/'
p141
sg21
S'Compare'
p142
sg23
I00
sg24
Nsb(tttS'Python Getopt SIG'
S'Getopt SIG'
p143
tp144
sS'psf/records/board/minutes/2004-10-12'
p145
(NS'Python Software Foundation: Minutes of Board of Directors\n Meeting (October 12, 2004)'
Ntp146
sS'dev/summary/2002-10-13-2002-10-21'
p147
(NS'2002-10-13 -- 2002-10-21'
Ntp148
sS'psf/records/members/2002-07'
p149
(NS'Member meeting at OSCON'
Ntp150
sS'about/success/verity'
p151
(NS'Python Success Stories'
Ntp152
sS'psf/records/board/minutes/2002-11-12'
p153
(NS'Python Software Foundation: Minutes of Board of Directors\n Meeting (November 12, 2002)'
Ntp154
sS'dev/summary/2003-11-16_2003-11-30'
p155
(NS'python-dev Summary for 2003-11-16 through 2003-11-30'
Ntp156
sS'psf/records/members/2007-02-23/proxy'
p157
(Ng75
Ntp158
sS'doc/essays/cp4e'
p159
(NS'Computer Programming for Everybody'
Ntp160
sS'psf/records/board/minutes/2002-03-12'
p161
(NS'Python Software Foundation: Minutes of Board of Directors\n Meeting (Mar. 12, 2002)'
Ntp162
sS'download/releases/2.3.3/bugs'
p163
(NS'Bugs in Python 2.3.3'
S'Bugs'
p164
tp165
sS'download'
p166
((((i__main__
Link
(dp167
g19
S'/download/releases/'
p168
sg21
S'Releases'
p169
sg23
I00
sg24
Nsb(tt((i__main__
Link
(dp170
g19
S'/download/windows/'
p171
sg21
S'Windows, DOS'
p172
sg23
I00
sg24
Nsb(tt((i__main__
Link
(dp173
g19
S'/download/mac/'
p174
sg21
g99
sg23
I00
sg24
Nsb(tt((i__main__
Link
(dp175
g19
S'/download/linux/'
p176
sg21
S'Linux'
p177
sg23
I00
sg24
Nsb(tt((i__main__
Link
(dp178
g19
S'/download/other/'
p179
sg21
S'Other'
p180
sg23
I00
sg24
Nsb(tt((i__main__
Link
(dp181
g19
S'/download/source/'
p182
sg21
S'Source'
p183
sg23
I00
sg24
Nsb(tt((i__main__
Link
(dp184
g19
S'/download/releases/3.0/'
p185
sg21
S'Python 3000'
p186
sg23
I00
sg24
Nsb(tt((i__main__
Link
(dp187
g19
S'/download/svn/'
p188
sg21
S'SVN Access'
p189
sg23
I00
sg24
Nsb(tt((i__main__
Link
(dp190
g19
S'/download/contributed/'
p191
sg21
S'Contributed Software'
p192
sg23
I00
sg24
Nsb(tttS'Download Python Software'
S'Download'
tp193
sS'psf/cooperations'
p194
(NS'Organizations Cooperating with the Python Software Foundation'
S'Cooperations'
p195
tp196
sS'doc/editors/emacs'
p197
(NS'Emacs Goodies'
S'Emacs'
p198
tp199
sS'download/releases/1.6.1/download'
p200
(NS'Download Python 1.6.1 Source'
S'Download Source'
p201
tp202
sS'psf/forms/sponsor-application'
p203
(NS'Python Software Foundation: Membership Application for Sponsor Member'
Ntp204
sS'psf/records/board/minutes/2005-11-08'
p205
(NS'Python Software Foundation: Minutes of Board of Directors Meeting, November 8, 2005'
Ntp206
sS'download/releases/2.3.5/bugs'
p207
(NS'Bugs in Python 2.3.5'
S'Bugs'
p208
tp209
sS'psf/records/board/minutes/2003-12-09'
p210
(NS'Python Software Foundation: Minutes of Board of Directors\n Meeting (December 9, 2003)'
Ntp211
sS'dev/peps/pep-0307'
p212
(NVPEP 307 -- Extensions to the pickle protocol
Ntp213
sS'dev/peps/pep-0306'
p214
(NVPEP 306 -- How to Change Python's Grammar
Ntp215
sS'dev/summary/2004-06-01_2004-06-15'
p216
(NS'python-dev Summary for 2004-06-01 through 2004-06-15'
Ntp217
sS'dev/peps/pep-0304'
p218
(NVPEP 304 -- Controlling Generation of Bytecode Files
Ntp219
sS'dev/peps/pep-0303'
p220
(NVPEP 303 -- Extend divmod() for Multiple Divisors
Ntp221
sS'dev/peps/pep-0302'
p222
(NVPEP 302 -- New Import Hooks
Ntp223
sS'dev/peps/pep-0301'
p224
(NVPEP 301 -- Package Index and Metadata for Distutils
Ntp225
sS'community/sigs/current/pythonmac-sig'
p226
(NS'Pythonmac-SIG - SIG on Python for the Apple Macintosh'
S'Pythonmac SIG'
p227
tp228
sS'community/workshops'
p229
(NS'Conferences and Workshops'
S'Python Conferences'
p230
tp231
sS'about/quotes'
p232
(NS'Quotes about Python'
S'Quotes'
tp233
sS'dev/peps/pep-0309'
p234
(NVPEP 309 -- Partial Function Application
Ntp235
sS'dev/peps/pep-0308'
p236
(NVPEP 308 -- Conditional Expressions
Ntp237
sS'dev/peps/pep-3113'
p238
(NVPEP 3113 -- Removal of Tuple Parameter Unpacking
Ntp239
sS'dev/peps/pep-3112'
p240
(NVPEP 3112 -- Bytes literals in Python 3000
Ntp241
sS'dev/peps/pep-0042'
p242
(NVPEP 42 -- Feature Requests
Ntp243
sS'dev/peps/pep-3110'
p244
(NVPEP 3110 -- Catching Exceptions in Python 3000
Ntp245
sS'dev/peps/pep-3117'
p246
(NVPEP 3117 -- Postfix type declarations
Ntp247
sS'dev/peps/pep-3116'
p248
(NVPEP 3116 -- New I/O
Ntp249
sS'download/releases/2.3.1/bugs'
p250
(NS'Bugs in Python 2.3.1'
S'Bugs'
p251
tp252
sS'dev/peps/pep-3114'
p253
(NVPEP 3114 -- Renaming iterator.next() to iterator.__next__()
Ntp254
sS'community/sigs/current/image-sig'
p255
((((i__main__
Link
(dp256
g19
S'/community/sigs/current/image-sig/status/'
p257
sg21
S'Status'
p258
sg23
I00
sg24
Nsb(tttS'Image-SIG - Image Processing with Python SIG'
S'Image SIG'
p259
tp260
sS'dev/peps/pep-3119'
p261
(NVPEP 3119 -- Introducing Abstract Base Classes
Ntp262
sS'dev/peps/pep-3118'
p263
(NVPEP 3118 -- Revising the buffer protocol
Ntp264
sS'doc/essays/cleanup'
p265
(NS'Proposed Improvements to Module Cleanup'
Ntp266
sS'download/other'
p267
(NS'Download Python for Other Platforms'
g180
tp268
sS'dev/summary/2005-08-01_2005-08-15'
p269
(NS'python-dev Summary for 2005-08-01 through 2005-08-15'
Ntp270
sS'community/lists'
p271
(NS'Python Mailing Lists, Newsgroups, and Web Forums'
S'Mailing Lists'
p272
tp273
sS'community/sigs/current/distutils-sig/doc/design'
p274
(NS'Python Distutils-SIG: Design Proposal'
Ntp275
sS'download/releases/2.5.1'
p276
((((i__main__
Link
(dp277
g19
S'/download/releases/2.5.1/NEWS.txt/'
p278
sg21
S'Release Notes'
p279
sg23
I00
sg24
Nsb(tt((i__main__
Link
(dp280
g19
S'/download/releases/2.5.1/bugs/'
p281
sg21
S'Bugs'
p282
sg23
I00
sg24
Nsb(tt((i__main__
Link
(dp283
g19
S'/download/releases/2.5.1/license/'
p284
sg21
g54
sg23
I00
sg24
Nsb(tt((i__main__
Link
(dp285
g19
S'/download/releases/2.5/msi/'
p286
sg21
S'Windows MSI Installer'
p287
sg23
I00
sg24
Nsb(tttS'Python 2.5.1 Release'
Ntp288
sS'download/releases/2.5.2'
p289
((((i__main__
Link
(dp290
g19
S'/download/releases/2.5.2/NEWS.txt/'
p291
sg21
S'Release Notes'
p292
sg23
I00
sg24
Nsb(tt((i__main__
Link
(dp293
g19
S'/download/releases/2.5.2/bugs/'
p294
sg21
S'Bugs'
p295
sg23
I00
sg24
Nsb(tt((i__main__
Link
(dp296
g19
S'/download/releases/2.5.2/license/'
p297
sg21
S'License'
p298
sg23
I00
sg24
Nsb(tt((i__main__
Link
(dp299
g19
S'/download/releases/2.5/msi/'
p300
sg21
S'Windows MSI Installer'
p301
sg23
I00
sg24
Nsb(tttS'Python 2.5.2 Release'
S'2.5.2'
p302
tp303
sS'dev/summary/2002-12-01_2002-12-15'
p304
(NS'python-dev Summary for 2002-12-01 through 2002-12-15'
Ntp305
sS'community/sigs/current/distutils-sig'
p306
((((i__main__
Link
(dp307
g19
S'/community/sigs/current/distutils-sig/list/'
p308
sg21
S'Mailing List'
p309
sg23
I00
sg24
Nsb(tt((i__main__
Link
(dp310
g19
S'/community/sigs/current/distutils-sig/sig_charter/'
p311
sg21
g72
sg23
I00
sg24
Nsb(tt((i__main__
Link
(dp312
g19
S'/community/sigs/current/distutils-sig/requirements/'
p313
sg21
S'Requirements'
p314
sg23
I00
sg24
Nsb(tttS'Python Distutils-SIG: Introduction'
S'Distutils SIG'
p315
tp316
sS'search'
p317
(NS'Search Python Resources'
Ntp318
sS'dev/peps/pep-0344'
p319
(NVPEP 344 -- Exception Chaining and Embedded Tracebacks
Ntp320
sS'download/releases/2.3/bugs'
p321
(NS'Bugs in Python 2.3'
S'Bugs'
p322
tp323
sS'download/releases/2.4.1/bugs'
p324
(NS'Python 2.4.1 - Bugs'
S'Bugs'
p325
tp326
sS'community/workshops/historic'
p327
(NS'Historic Python Conferences and Workshops'
Ntp328
sS'about/success'
p329
(NS'Python Success Stories'
S'Success Stories'
tp330
sS'community/sigs/retired/string-sig'
p331
(NS'String-SIG - SIG on Enhancement of Python String Processing'
S'String SIG'
p332
tp333
sS'doc/newstyle'
p334
(NS'New-style Classes'
S'New-Style Classes'
p335
tp336
sS'dev/summary/2006-07-16_2006-07-31'
p337
(Ng75
Ntp338
sS'download/releases/2.3.5/license'
p339
(NS'Python 2.3.5 license'
S'License'
p340
tp341
sS'download/releases/2.2.2/bugs'
p342
(NS'Incompatibilities between Python 2.1[.x] and 2.2[.x]'
S'Bugs'
p343
tp344
sS'dev/summary/2004-11-01_2004-11-15'
p345
(NS'python-dev Summary for 2004-11-01 through 2004-11-15'
Ntp346
sS'dev/culture'
p347
(NS'Python Culture'
S'Culture'
p348
tp349
sS'community/sigs/retired/thread-sig'
p350
(NS'Thread-SIG - SIG on Process Threading in Python'
S'Thread SIG'
p351
tp352
sS'dev/summary/2003-04-16_2003-04-30'
p353
(NS'python-dev Summary for 2003-04-16 through 2003-04-30'
Ntp354
sS'doc/editors/vim'
p355
(NS'Vim for Python'
S'Vi(m)'
p356
tp357
sS'community/sigs/current/doc-sig/otherlangs'
p358
(NS'Other Documentation Tools'
S'Other Languages'
p359
tp360
sS'community/awards/frank-willison/2006-martelli'
p361
(NS'A Journey to Python'
Ntp362
sS'doc/essays/styleguide'
p363
(NS'Python Style Guide'
Ntp364
sS'download/releases/2.4.3/bugs'
p365
(NS'Bugs in Python 2.4.3'
S'Bugs'
p366
tp367
sS'doc/2.4.4'
p368
((((i__main__
Link
(dp369
g19
S'http://docs.python.org/'
p370
sg21
S'Current Docs'
p371
sg23
I00
sg24
Nsb(tt((i__main__
Link
(dp372
g19
S'http://wiki.python.org/moin/BeginnersGuide'
p373
sg21
S"Beginner's Guide"
p374
sg23
I00
sg24
Nsb(tt((i__main__
Link
(dp375
g19
S'/doc/faq/'
p376
sg21
S'FAQs'
p377
sg23
I00
sg24
Nsb(tt((i__main__
Link
(dp378
g19
S'http://wiki.python.org/moin/'
p379
sg21
S'Wiki'
p380
sg23
I00
sg24
Nsb(tt((i__main__
Link
(dp381
g19
S'/doc/other/'
p382
sg21
S'Other doc resources'
p383
sg23
I00
sg24
Nsb(tt((i__main__
Link
(dp384
g19
S'/dev/peps/'
p385
sg21
S'PEP Index'
p386
sg23
I00
sg24
Nsb(tt((i__main__
Link
(dp387
g19
S'http://wiki.python.org/moin/PythonBooks'
p388
sg21
S'Book list'
p389
sg23
I00
sg24
Nsb(tt((i__main__
Link
(dp390
g19
S'/doc/topics/'
p391
sg21
S'Topic guides'
p392
sg23
I00
sg24
Nsb(tt((i__main__
Link
(dp393
g19
S'/doc/newstyle/'
p394
sg21
S'New-style classes'
p395
sg23
I00
sg24
Nsb(tt((i__main__
Link
(dp396
g19
S'http://docs.python.org/library/re.html'
p397
sg21
S'Regular expressions'
p398
sg23
I00
sg24
Nsb(tttS'Python 2.4.4 Documentation'
Ntp399
sS'community/sigs/current/edu-sig'
p400
(NS'EDU-SIG: Python in Education'
S'Edu SIG'
p401
tp402
sS'download/releases/2.6/license'
p403
(NS'Python 2.5 license'
S'License'
p404
tp405
sS'psf/trademarks'
p406
(NS'PSF Trademark Usage Policy'
S'Trademark Policy'
p407
tp408
sS'community/awards/psf-awards'
p409
(NS'PSF Community Awards'
S'PSF Community Awards'
p410
tp411
sS'doc/topics/database/other-db'
p412
(NS'Other Database Modules'
S'Other Database Modules'
p413
tp414
sS'download/releases'
p415
((((i__main__
Link
(dp416
g19
S'/download/releases/3.0/'
p417
sg21
S'3.0rc3'
p418
sg23
I00
sg24
Nsb(tt((i__main__
Link
(dp419
g19
S'/download/releases/2.6/'
p420
sg21
S'2.6'
p421
sg23
I00
sg24
Nsb(tt((i__main__
Link
(dp422
g19
S'/download/releases/2.5.2/'
p423
sg21
g302
sg23
I00
sg24
Nsb(tt((i__main__
Link
(dp424
g19
S'/download/releases/2.4.5/'
p425
sg21
S'2.4.5'
p426
sg23
I00
sg24
Nsb(tt((i__main__
Link
(dp427
g19
S'/download/releases/2.3.7/'
p428
sg21
S'2.3.7'
p429
sg23
I00
sg24
Nsb(tt((i__main__
Link
(dp430
g19
S'/download/releases/2.2.3/'
p431
sg21
S'2.2.3'
p432
sg23
I00
sg24
Nsb(tt((i__main__
Link
(dp433
g19
S'/download/releases/2.1.3/'
p434
sg21
S'2.1.3'
p435
sg23
I00
sg24
Nsb(tt((i__main__
Link
(dp436
g19
S'/download/releases/2.0.1/'
p437
sg21
S'2.0.1'
p438
sg23
I00
sg24
Nsb(tt((i__main__
Link
(dp439
g19
S'/download/releases/1.6.1/'
p440
sg21
S'1.6.1'
p441
sg23
I00
sg24
Nsb(tt((i__main__
Link
(dp442
g19
S'/download/releases/1.5/'
p443
sg21
S'1.5.2'
p444
sg23
I00
sg24
Nsb(tttS'Releases'
g169
tp445
sS'dev/summary/2002-09-01-2002-09-15'
p446
(NS'python-dev Summary for 2002-09-01 through 2002-09-15'
Ntp447
sS'dev/summary/2004-10-16_2004-10-31'
p448
(NS'python-dev Summary for 2004-10-16 through 2004-10-31'
Ntp449
sS'download/releases/2.3.2'
p450
((((i__main__
Link
(dp451
g19
S'/download/releases/2.3.2/NEWS.txt/'
p452
sg21
S'Release Notes'
p453
sg23
I00
sg24
Nsb(tt((i__main__
Link
(dp454
g19
S'/download/releases/2.3.2/bugs/'
p455
sg21
g57
sg23
I00
sg24
Nsb(tt((i__main__
Link
(dp456
g19
S'/download/releases/2.3.2/license/'
p457
sg21
g135
sg23
I00
sg24
Nsb(tt((i__main__
Link
(dp458
g19
S'/download/releases/2.3.2/rpms/'
p459
sg21
S'Linux RPMS'
p460
sg23
I00
sg24
Nsb(tttS'Python 2.3.2'
Ntp461
sS'download/releases/2.3.3'
p462
((((i__main__
Link
(dp463
g19
S'/download/releases/2.3.3/NEWS.txt/'
p464
sg21
S'Release Notes'
p465
sg23
I00
sg24
Nsb(tt((i__main__
Link
(dp466
g19
S'/download/releases/2.3.3/bugs/'
p467
sg21
g164
sg23
I00
sg24
Nsb(tt((i__main__
Link
(dp468
g19
S'/download/releases/2.3.3/license/'
p469
sg21
S'License'
p470
sg23
I00
sg24
Nsb(tt((i__main__
Link
(dp471
g19
S'/download/releases/2.3.3/rpms/'
p472
sg21
g129
sg23
I00
sg24
Nsb(tttS'Python 2.3.3'
Ntp473
sS'download/releases/2.3.1'
p474
((((i__main__
Link
(dp475
g19
S'/download/releases/2.3.1/NEWS.txt/'
p476
sg21
S'Release Notes'
p477
sg23
I00
sg24
Nsb(tt((i__main__
Link
(dp478
g19
S'/download/releases/2.3.1/ChangeLog.txt/'
p479
sg21
S'Change Log'
p480
sg23
I00
sg24
Nsb(tt((i__main__
Link
(dp481
g19
S'/download/releases/2.3.1/bugs/'
p482
sg21
g251
sg23
I00
sg24
Nsb(tt((i__main__
Link
(dp483
g19
S'/download/releases/2.3.1/license/'
p484
sg21
S'License'
p485
sg23
I00
sg24
Nsb(tt((i__main__
Link
(dp486
g19
S'/download/releases/2.3.1/rpms/'
p487
sg21
S'Linux RPMS'
p488
sg23
I00
sg24
Nsb(tttS'Python 2.3.1'
Ntp489
sS'download/releases/2.3.6'
p490
((((i__main__
Link
(dp491
g19
S'/download/releases/2.3.6/NEWS.txt/'
p492
sg21
S'Release Notes'
p493
sg23
I00
sg24
Nsb(tt((i__main__
Link
(dp494
g19
S'/download/releases/2.3.6/bugs/'
p495
sg21
S'Bugs'
p496
sg23
I00
sg24
Nsb(tt((i__main__
Link
(dp497
g19
S'/download/releases/2.3.6/license/'
p498
sg21
S'License'
p499
sg23
I00
sg24
Nsb(tttS'Python 2.3.6 Release'
Ntp500
sS'download/releases/2.3.7'
p501
((((i__main__
Link
(dp502
g19
S'/download/releases/2.3.7/NEWS.txt/'
p503
sg21
S'Release Notes'
p504
sg23
I00
sg24
Nsb(tt((i__main__
Link
(dp505
g19
S'/download/releases/2.3.7/bugs/'
p506
sg21
S'Bugs'
p507
sg23
I00
sg24
Nsb(tt((i__main__
Link
(dp508
g19
S'/download/releases/2.3.7/license/'
p509
sg21
S'License'
p510
sg23
I00
sg24
Nsb(tttS'Python 2.3.7 Release'
g429
tp511
sS'download/releases/2.3.4'
p512
((((i__main__
Link
(dp513
g19
S'/download/releases/2.3.4/NEWS.txt/'
p514
sg21
S'Release Notes'
p515
sg23
I00
sg24
Nsb(tt((i__main__
Link
(dp516
g19
S'/download/releases/2.3.4/bugs/'
p517
sg21
S'Bugs'
p518
sg23
I00
sg24
Nsb(tt((i__main__
Link
(dp519
g19
S'/download/releases/2.3.4/license/'
p520
sg21
S'License'
p521
sg23
I00
sg24
Nsb(tt((i__main__
Link
(dp522
g19
S'/download/releases/2.3.4/rpms/'
p523
sg21
g90
sg23
I00
sg24
Nsb(tttS'Python 2.3.4'
Ntp524
sS'download/releases/2.3.5'
p525
((((i__main__
Link
(dp526
g19
S'/download/releases/2.3.5/notes/'
p527
sg21
S'Release Notes'
p528
sg23
I00
sg24
Nsb(tt((i__main__
Link
(dp529
g19
S'/download/releases/2.3.5/bugs/'
p530
sg21
g208
sg23
I00
sg24
Nsb(tt((i__main__
Link
(dp531
g19
S'/download/releases/2.3.5/license/'
p532
sg21
g340
sg23
I00
sg24
Nsb(tt((i__main__
Link
(dp533
g19
S'/download/releases/2.3.5/rpms/'
p534
sg21
S'Linux RPMSs'
p535
sg23
I00
sg24
Nsb(tttS'Python 2.3.5'
Ntp536
sS'community/sigs/current/image-sig/status'
p537
(NS'Image Processing with Python SIG Status'
g258
tp538
sS'community/sigs/retired/locator-sig'
p539
((((i__main__
Link
(dp540
g19
S'/community/sigs/retired/locator-sig/mission/'
p541
sg21
S'Mission'
p542
sg23
I00
sg24
Nsb(tttS'Python Locator Special Interest Group'
S'Locator SIG'
p543
tp544
sS'doc/faq/it/windows'
p545
(NS'Python Windows FAQ'
Ntp546
sS'download/releases/2.3/license'
p547
(NS'Python 2.3 license'
S'License'
p548
tp549
sS'dev/summary/2000-12-1'
p550
(NS'Python-dev summary: 2000-12-01 to 2000-12-15'
Ntp551
sS'psf/records/board/minutes/2005-02-08'
p552
(NS'Python Software Foundation: Minutes of Board of Directors\n Meeting (February 8, 2005)'
Ntp553
sS'dev/summary/2000-12-2'
p554
(NS'Python-dev summary: 2000-12-16 to 2000-12-31'
Ntp555
sS'dev/summary/2001-02-1'
p556
(NS'Python-dev summary: 2001-02-01 to 2001-02-14'
Ntp557
sS'dev/summary/2001-02-2'
p558
(NS'Python-dev summary: 2001-02-15 to 2001-02-28'
Ntp559
sS'dev/peps/pep-0327'
p560
(NVPEP 327 -- Decimal Data Type
Ntp561
sS'psf/records/board/minutes/2006-10-09'
p562
(NS'Python Software Foundation Board Meeting Minutes 2006-10-09'
Ntp563
sS'download/releases/1.6/license_faq'
p564
(NS'Python 1.6 License FAQ'
Ntp565
sS'dev/pydotorg/translations'
p566
(Ng75
S'Translations'
p567
tp568
sS'download/unpacking'
p569
(NS'Unpacking Archives'
Ntp570
sS'dev/summary/2006-09-01_2006-09-15'
p571
(Ng75
Ntp572
sS'psf/forms/emeritus'
p573
(NS'Conversion to Emeritus PSF Membership'
Ntp574
sS'about/success/tribon'
p575
(NS'Python Success Stories'
Ntp576
sS'download/releases/2.2.1/bugs'
p577
(NS'Known bugs in Python 2.2.1'
S'Bugs'
p578
tp579
sS'psf/records/members/2007-02-23'
p580
(NS"2007 PSF Members' Meeting Minutes"
Ntp581
sS'psf/volunteer'
p582
(NS'Volunteer'
S'Volunteer'
p583
tp584
sS'psf/records/board/minutes/2006-06-12'
p585
(NS'Python Software Foundation Board Meeting Minutes 2006-06-12'
Ntp586
sS'dev/summary/2001-06-1'
p587
(NS'Python-dev summary: 2001-05-24 to 2001-06-07'
Ntp588
sS'download/download_source'
p589
(NS'Download Python Sources'
Ntp590
sS'dev/summary/2001-06-2'
p591
(NS'Python-dev summary: 2001-06-07 to 2001-06-21'
Ntp592
sS'download/linux'
p593
(NS'Python for Linux'
g177
tp594
sS'community/sigs/current/distutils-sig/doc/requirements'
p595
(NS'Python Distutils-SIG: Requirements'
Ntp596
sS'dev'
p597
((((i__main__
Link
(dp598
g19
S'/dev/why/'
p599
sg21
S'Why Develop Python?'
p600
sg23
I00
sg24
Nsb(tt((i__main__
Link
(dp601
g19
S'/dev/setup/'
p602
sg21
S'Getting Set Up'
p603
sg23
I00
sg24
Nsb(tt((i__main__
Link
(dp604
g19
S'/dev/implementations/'
p605
sg21
S'Implementations'
p606
sg23
I00
sg24
Nsb(tt((i__main__
Link
(dp607
g19
S'/dev/intro/'
p608
sg21
S'Intro to Development'
p609
sg23
I00
sg24
Nsb(tt((i__main__
Link
(dp610
g19
S'/dev/process/'
p611
sg21
S'Development Process'
p612
sg23
I00
sg24
Nsb(tt((i__main__
Link
(dp613
g19
S'/dev/culture/'
p614
sg21
g348
sg23
I00
sg24
Nsb(tt((i__main__
Link
(dp615
g19
S'/dev/tools/'
p616
sg21
S'Tools'
p617
sg23
I00
sg24
Nsb(tt((i__main__
Link
(dp618
g19
S'/dev/patches/'
p619
sg21
S'Patch Submission'
p620
sg23
I00
sg24
Nsb(tt((i__main__
Link
(dp621
g19
S'/dev/buildbot/'
p622
sg21
S'Buildbot'
p623
sg23
I00
sg24
Nsb(tt((i__main__
Link
(dp624
g19
S'/dev/doc/'
p625
sg21
S'Documenting Python'
p626
sg23
I00
sg24
Nsb(tt((i__main__
Link
(dp627
g19
S'/dev/faq/'
p628
sg21
S'FAQ'
p629
sg23
I00
sg24
Nsb(tt((i__main__
Link
(dp630
g19
S'/dev/peps/'
p631
sg21
S'PEP Index'
p632
sg23
I00
sg24
Nsb(tt((i__main__
Link
(dp633
g19
S'/dev/summary/'
p634
sg21
S'python-dev Summaries'
p635
sg23
I00
sg24
Nsb(tt((i__main__
Link
(dp636
g19
S'/dev/pydotorg/'
p637
sg21
S'Python.org'
p638
sg23
I00
sg24
Nsb(tt((i__main__
Link
(dp639
g19
S'http://svn.python.org/view/'
p640
sg21
S'Browse Subversion'
p641
sg23
I00
sg24
Nsb(tt((i__main__
Link
(dp642
g19
S'/dev/bazaar/'
p643
sg21
S'Experimental Bazaar branches'
p644
sg23
I00
sg24
Nsb(tt((i__main__
Link
(dp645
g19
S'http://svn.python.org/snapshots/'
p646
sg21
S'Daily Snapshots'
p647
sg23
I00
sg24
Nsb(tttS'Python Developers Guide'
S'Core Development'
tp648
sS'psf/records/board/minutes/2006-04-10'
p649
(NS'Python Software Foundation Board Meeting Minutes 2006-04-10'
Ntp650
sS'about/success/devnet'
p651
(NS'Python Success Stories'
Ntp652
sS'about/success/mayavi'
p653
(NS'Python Success Stories'
Ntp654
sS'dev/summary/2005-10-01_2005-10-15'
p655
(NS'python-dev Summary for 2005-10-01 through 2005-10-15'
Ntp656
sS'psf/records/board/minutes/2007-08-13'
p657
(NS'2007-08-13 PSF Board Meeting Minutes'
Ntp658
sS'doc/faq/it/installed'
p659
(NS'"Why is Python Installed on my Computer?" FAQ'
Ntp660
sS'dev/summary/2001-05-2'
p661
(NS'Python-dev summary: 2001-05-10 to 2001-05-24'
Ntp662
sS'dev/summary/2001-05-1'
p663
(NS'Python-dev summary: 2001-04-26 to 2001-05-09'
Ntp664
sS'dev/peps/pep-0343'
p665
(NVPEP 343 -- The "with" Statement
Ntp666
sS'dev/peps/pep-0342'
p667
(NVPEP 342 -- Coroutines via Enhanced Generators
Ntp668
sS'dev/peps/pep-0341'
p669
(NVPEP 341 -- Unifying try-except and try-finally
Ntp670
sS'dev/peps/pep-0340'
p671
(NVPEP 340 -- Anonymous Block Statements
Ntp672
sS'dev/peps/pep-0347'
p673
(NVPEP 347 -- Migrating the Python CVS to Subversion
Ntp674
sS'dev/peps/pep-0346'
p675
(NVPEP 346 -- User Defined ("with") Statements
Ntp676
sS'dev/peps/pep-0345'
p677
(NVPEP 345 -- Metadata for Python Software Packages 1.2
Ntp678
sS'download/releases/2.1.1/rpms'
p679
(NS'Linux RPMs for Python 2.1.1'
S'Linux RPMS'
p680
tp681
sS'download/releases/2.3.6/license'
p682
(NS'Python 2.3.6 license'
g499
tp683
sS'dev/peps/pep-0349'
p684
(NVPEP 349 -- Allow str() to return unicode strings
Ntp685
sS'dev/peps/pep-0348'
p686
(NVPEP 348 -- Exception Reorganization for Python 3.0
Ntp687
sS'psf/records/members/2008-03-14/absentee-ballot'
p688
(NS"Absentee Ballot - 2008-03-14 PSF Members' Meeting"
Ntp689
sS'dev/summary/2006-02-16_2006-02-28'
p690
(Ng75
Ntp691
sS'dev/pydotorg'
p692
((((i__main__
Link
(dp693
g19
S'/dev/pydotorg/website/'
p694
sg21
S'Website Maintenance'
p695
sg23
I00
sg24
Nsb(tt((i__main__
Link
(dp696
g19
S'/dev/pydotorg/translations/'
p697
sg21
g567
sg23
I00
sg24
Nsb(tt((i__main__
Link
(dp698
g19
S'http://mail.python.org/replybot/'
p699
sg21
S'Replybot Texts'
p700
sg23
I00
sg24
Nsb(tttS'Python.org Maintenance and Administration'
g638
tp701
sS'dev/summary/2005-12-01_2005-12-15'
p702
(NS'python-dev Summary for 2005-12-01 through 2005-12-15'
Ntp703
sS'dev/peps/pep-0204'
p704
(NVPEP 204 -- Range Literals
Ntp705
sS'community/sigs/retired/types-sig/status'
p706
(NS'Types SIG Status'
S'Status'
p707
tp708
sS'dev/peps/pep-0100'
p709
(NVPEP 100 -- Python Unicode Integration
Ntp710
sS'community/sigs/retired'
p711
((((i__main__
Link
(dp712
S'href'
p713
S'/community/sigs/retired/compiler-sig/'
p714
sS'link_text'
p715
S'Compiler SIG'
p716
sS'selected'
p717
I00
sS'title'
p718
Nsb(tt((i__main__
Link
(dp719
g713
S'/community/sigs/retired/do-sig/'
p720
sg715
S'Do SIG'
p721
sg717
I00
sg718
Nsb(tt((i__main__
Link
(dp722
g713
S'/community/sigs/retired/getopt-sig/'
p723
sg715
g143
sg717
I00
sg718
Nsb(tt((i__main__
Link
(dp724
g713
S'/community/sigs/retired/import-sig/'
p725
sg715
S'Import SIG'
p726
sg717
I00
sg718
Nsb(tt((i__main__
Link
(dp727
g713
S'/community/sigs/retired/parser-sig/'
p728
sg715
g25
sg717
I00
sg718
Nsb(tt((i__main__
Link
(dp729
g713
S'/community/sigs/retired/persistence-sig/'
p730
sg715
S'Persistence SIG'
p731
sg717
I00
sg718
Nsb(tt((i__main__
Link
(dp732
g713
S'/community/sigs/retired/plot-sig/'
p733
sg715
S'Plot SIG'
p734
sg717
I00
sg718
Nsb(tt((i__main__
Link
(dp735
g713
S'/community/sigs/retired/thread-sig/'
p736
sg715
g351
sg717
I00
sg718
Nsb(tt((i__main__
Link
(dp737
g713
S'/community/sigs/retired/types-sig/'
p738
sg715
S'Types SIG'
p739
sg717
I00
sg718
Nsb(tt((i__main__
Link
(dp740
g713
S'/community/sigs/retired/string-sig/'
p741
sg715
g332
sg717
I00
sg718
Nsb(tt((i__main__
Link
(dp742
g713
S'/community/sigs/retired/matrix-sig/'
p743
sg715
S'Matrix SIG'
p744
sg717
I00
sg718
Nsb(tt((i__main__
Link
(dp745
g713
S'/community/sigs/retired/gui-sig/'
p746
sg715
S'Gui SIG'
p747
sg717
I00
sg718
Nsb(tt((i__main__
Link
(dp748
g713
S'/community/sigs/retired/objc-sig/'
p749
sg715
g31
sg717
I00
sg718
Nsb(tt((i__main__
Link
(dp750
g713
S'/community/sigs/retired/locator-sig/'
p751
sg715
g543
sg717
I00
sg718
Nsb(tt((i__main__
Link
(dp752
g713
S'/community/sigs/retired/pattern-sig/'
p753
sg715
S'Pattern SIG'
p754
sg717
I00
sg718
Nsb(tt((i__main__
Link
(dp755
g713
S'/community/sigs/retired/progenv-sig/'
p756
sg715
S'Progenv SIG'
p757
sg717
I00
sg718
Nsb(tt((i__main__
Link
(dp758
g713
S'/community/sigs/retired/pythonwin-sig/'
p759
sg715
S'Pythonwin SIG'
p760
sg717
I00
sg718
Nsb(tttS'Retired SIGS'
S'Retired SIGs'
p761
tp762
sS'download/releases/2.4/bugs'
p763
(NS'Bugs in Python 2.4'
S'Bugs'
p764
tp765
sS'doc/2.4.4/download'
p766
((((i__main__
Link
(dp767
g19
S'http://docs.python.org/'
p768
sg21
S'Current Docs'
p769
sg23
I00
sg24
Nsb(tt((i__main__
Link
(dp770
g19
S'http://wiki.python.org/moin/BeginnersGuide'
p771
sg21
S"Beginner's Guide"
p772
sg23
I00
sg24
Nsb(tt((i__main__
Link
(dp773
g19
S'/doc/faq/'
p774
sg21
S'FAQs'
p775
sg23
I00
sg24
Nsb(tt((i__main__
Link
(dp776
g19
S'http://wiki.python.org/moin/'
p777
sg21
S'Wiki'
p778
sg23
I00
sg24
Nsb(tt((i__main__
Link
(dp779
g19
S'/doc/other/'
p780
sg21
S'Other doc resources'
p781
sg23
I00
sg24
Nsb(tt((i__main__
Link
(dp782
g19
S'/dev/peps/'
p783
sg21
S'PEP Index'
p784
sg23
I00
sg24
Nsb(tt((i__main__
Link
(dp785
g19
S'http://wiki.python.org/moin/PythonBooks'
p786
sg21
S'Book list'
p787
sg23
I00
sg24
Nsb(tt((i__main__
Link
(dp788
g19
S'/doc/topics/'
p789
sg21
S'Topic guides'
p790
sg23
I00
sg24
Nsb(tt((i__main__
Link
(dp791
g19
S'/doc/newstyle/'
p792
sg21
S'New-style classes'
p793
sg23
I00
sg24
Nsb(tt((i__main__
Link
(dp794
g19
S'http://docs.python.org/library/re.html'
p795
sg21
S'Regular expressions'
p796
sg23
I00
sg24
Nsb(tttS'Download Python 2.4.4 Documentation'
Ntp797
sS'dev/peps/pep-0250'
p798
(NVPEP 250 -- Using site-packages on Windows
Ntp799
sS'download/releases/2.1/fsf'
p800
(NS'FSF response to the Python 2.1 license'
Ntp801
sS'download/releases/2.1.3'
p802
((((i__main__
Link
(dp803
g19
S'/download/releases/2.1.3/NEWS.txt/'
p804
sg21
S"What's New"
p805
sg23
I00
sg24
Nsb(tt((i__main__
Link
(dp806
g19
S'/download/releases/2.1.3/notes/'
p807
sg21
S'Release Notes'
p808
sg23
I00
sg24
Nsb(tt((i__main__
Link
(dp809
g19
S'/download/releases/2.1.3/license/'
p810
sg21
S'License'
p811
sg23
I00
sg24
Nsb(tt((i__main__
Link
(dp812
g19
S'/download/releases/2.1.3/rpms/'
p813
sg21
S'Linux RPMSs'
p814
sg23
I00
sg24
Nsb(tttS'Python 2.1.3'
g435
tp815
sS'dev/patches/style'
p816
(NS'Python Patch Style Guidelines'
S'Style Guidelines'
p817
tp818
sS'dev/peps/pep-0268'
p819
(NVPEP 268 -- Extended HTTP functionality and WebDAV
Ntp820
sS'dev/peps/pep-0269'
p821
(NVPEP 269 -- Pgen Module for Python
Ntp822
sS'doc/essays/metaclasses'
p823
(NS'Metaclasses in Python 1.5'
Ntp824
sS'dev/summary/2000-11-2'
p825
(NS'Python-dev summary: 2000-11-16 to 2000-11-30'
Ntp826
sS'download/releases/2.2/rpms'
p827
(NS'Linux RPMs for Python 2.2'
S'Linux RPMS'
p828
tp829
sS'dev/summary/2005-03-01_2005-03-15'
p830
(NS'python-dev Summary for 2005-03-01 through 2005-03-15'
Ntp831
sS'dev/summary/2000-11-1'
p832
(NS'Python-dev summary: 2000-11-01 to 2000-11-15'
Ntp833
sS'dev/summary/2006-10-01_2006-10-15'
p834
(Ng75
Ntp835
sS'community/sigs/current/distutils-sig/doc/interface'
p836
(NS'Python Distutils-SIG: Proposed User Interface'
Ntp837
sS'dev/peps/pep-0262'
p838
(NVPEP 262 -- A Database of Installed Python Packages
Ntp839
sS'dev/peps/pep-0263'
p840
(NVPEP 0263 -- Defining Python Source Code Encodings
Ntp841
sS'dev/peps/pep-0264'
p842
(NVPEP 264 -- Future statements in simulated shells
Ntp843
sS'dev/peps/pep-0265'
p844
(NVPEP 265 -- Sorting Dictionaries by Value
Ntp845
sS'dev/peps/pep-0266'
p846
(NVPEP 266 -- Optimizing Global Variable/Attribute Access
Ntp847
sS'dev/peps/pep-0267'
p848
(NVPEP 267 -- Optimized Access to Module Namespaces
Ntp849
sS'dev/peps/pep-0008'
p850
(NVPEP 8 -- Style Guide for Python Code
Ntp851
sS'dev/peps/pep-0009'
p852
(NVPEP 9 -- Sample Plaintext PEP Template
Ntp853
sS'dev/peps/pep-0004'
p854
(NVPEP 4 -- Deprecation of Standard Modules
Ntp855
sS'dev/peps/pep-0005'
p856
(NVPEP 5 -- Guidelines for Language Evolution
Ntp857
sS'dev/peps/pep-0006'
p858
(NVPEP 6 -- Bug Fix Releases
Ntp859
sS'dev/peps/pep-0007'
p860
(NVPEP 7 -- Style Guide for C Code
Ntp861
sS'dev/peps/pep-0000'
p862
(NVPEP 0 -- Index of Python Enhancement Proposals (PEPs)
Ntp863
sS'dev/peps/pep-0001'
p864
(NVPEP 1 -- PEP Purpose and Guidelines
Ntp865
sS'dev/peps/pep-0002'
p866
(NVPEP 2 -- Procedure for Adding New Modules
Ntp867
sS'dev/peps/pep-0003'
p868
(NVPEP 3 -- Guidelines for Handling Bug Reports
Ntp869
sS'dev/peps/pep-0259'
p870
(NVPEP 259 -- Omit printing newline after newline
Ntp871
sS'dev/summary/2004-03-01_2004-03-15'
p872
(NS'python-dev Summary for 2004-03-01 through 2004-03-15'
Ntp873
sS'dev/peps/pep-0258'
p874
(NVPEP 258 -- Docutils Design Specification
Ntp875
sS'dev/peps/pep-3099'
p876
(NVPEP 3099 -- Things that will Not Change in Python 3000
Ntp877
sS'doc/slideshows'
p878
(NS'Slideshow Collections for Instructional Use'
Ntp879
sS'dev/summary/2006-04-01_2006-04-15'
p880
(Ng75
Ntp881
sS'doc/essays/pepparade'
p882
(NS'Parade of the PEPs'
Ntp883
sS'download/releases/1.6/download'
p884
(NS'Download Python 1.6 Source'
Ntp885
sS'about/success/ilm'
p886
(NS'Python Success Stories'
Ntp887
sS'dev/peps'
p888
(Ng75
g632
tp889
sS'dev/summary/2001-03-1'
p890
(NS'Python-dev summary: 2001-03-01 to 2001-03-14'
Ntp891
sS'dev/summary/2001-03-2'
p892
(NS'python-dev summary: 2001-03-15 - 2001-03-29'
Ntp893
sS'dev/intro'
p894
(NS'Guido, Some Guys, and a Mailing List: How Python is Developed'
g609
tp895
sS'dev/summary/2001-01-2'
p896
(NS'Python-dev summary: 2001-01-16 to 2001-01-31'
Ntp897
sS'dev/summary/2001-01-1'
p898
(NS'Python-dev summary: 2001-01-01 to 2001-01-15'
Ntp899
sS'dev/summary/2003-01-01_2003-01-15'
p900
(NS'python-dev Summary for 2003-01-01 through 2002-01-15'
Ntp901
sS'dev/bazaar'
p902
(NS'Experimental Bazaar branches'
g644
tp903
sS'dev/summary/2003-05-01_2003-05-15'
p904
(NS'python-dev Summary for 2003-05-01 through 2003-05-15'
Ntp905
sS'dev/patches'
p906
((((i__main__
Link
(dp907
g19
S'/dev/patches/style/'
p908
sg21
g817
sg23
I00
sg24
Nsb(tttS'Python Patch Submission Guidelines'
g620
tp909
sS'community/sigs/current/doc-sig/stext'
p910
(NS'Structured Text Formatting Rules'
S'Structured Text'
p911
tp912
sS'download/releases/2.2.3/bugs'
p913
(NS'Incompatibilities between Python 2.1[.x] and 2.2[.x]'
S'Bugs'
p914
tp915
sS'doc/faq/it/general'
p916
(NS'FAQ Generali su Python'
Ntp917
sS'doc/essays/omg-darpa-mcc-position'
p918
(NS'Glue It All Together With Python'
Ntp919
sS'psf/records/board/minutes/2007-06-11'
p920
(NS'2007-06-11 PSF Board Meeting Minutes'
Ntp921
sS'download/releases/2.4.3/license'
p922
(NS'Python 2.4.3 license'
S'License'
p923
tp924
sS'download/download_linux'
p925
(NS'Download Python for Linux'
Ntp926
sS'doc/essays/refcnt'
p927
(NS'Debugging Reference Count Problems'
Ntp928
sS'psf/press-release/pr200204'
p929
(NS'Python Software Foundation: Press Release 8-Apr-2002'
Ntp930
sS'download/releases/2.4.2'
p931
((((i__main__
Link
(dp932
g19
S'/download/releases/2.4.2/NEWS.txt/'
p933
sg21
S'Release Notes'
p934
sg23
I00
sg24
Nsb(tt((i__main__
Link
(dp935
g19
S'/download/releases/2.4.2/bugs/'
p936
sg21
S'Bugs'
p937
sg23
I00
sg24
Nsb(tt((i__main__
Link
(dp938
g19
S'/download/releases/2.4.2/license/'
p939
sg21
S'License'
p940
sg23
I00
sg24
Nsb(tt((i__main__
Link
(dp941
g19
S'/download/releases/2.4/msi/'
p942
sg21
S'Windows MSI Installer'
p943
sg23
I00
sg24
Nsb(tt((i__main__
Link
(dp944
g19
S'/download/releases/2.4.2/rpms/'
p945
sg21
S'Linux RPMS'
p946
sg23
I00
sg24
Nsb(tttS'Python 2.4.2 Release'
Ntp947
sS'download/releases/2.3/rpms'
p948
(NS'Linux RPMs for Python 2.3'
S'Linux RPMS'
p949
tp950
sS'about/legal'
p951
(NS'Legal Statements'
Ntp952
sS'doc/faq/general'
p953
(NS'General Python FAQ'
S'General'
p954
tp955
sS'psf/contrib/contrib-form-python'
p956
(NS'PSF Contributor Agreement for Python'
Ntp957
sS'psf/records/board/minutes/2007-03-12'
p958
(NS'2007-03-12 PSF Board Meeting Minutes'
Ntp959
sS'download/download_other'
p960
(NS'Download Python for Other Platforms'
Ntp961
sS'download/releases/2.1/license'
p962
(NS'Python 2.1 license'
S'License'
p963
tp964
sS'psf/records/board/minutes/2006-02-14'
p965
(NS'Python Software Foundation: Minutes of Board of Directors Meeting, February 14, 2006'
Ntp966
sS'dev/summary/2004-05-01_2004-05-31'
p967
(NS'python-dev Summary for 2004-05-01 through 2004-05-31'
Ntp968
sS'404'
p969
(NS'Page Not Found'
Ntp970
sS'dev/peps/pep-3140'
p971
(NVPEP 3140 -- str(container) should call str(item), not repr(item)
Ntp972
sS'dev/summary/2003-02-16_2003-02-28'
p973
(NS'python-dev Summary for 2003-02-16 through 2003-02-28'
Ntp974
sS'download/releases/2.1.1/license'
p975
(NS'Python 2.1.1 license'
S'License'
p976
tp977
sS'doc/humor'
p978
(NS'Python Humor'
Ntp979
sS'download/releases/2.2/descrintro'
p980
(NS'Unifying types and classes in Python 2.2'
Ntp981
sS'dev/peps/pep-3108'
p982
(NVPEP 3108 -- Standard Library Reorganization
Ntp983
sS'community/sigs/retired/types-sig/interfaces'
p984
(NS'Details on Python interfaces'
S'Interfaces'
p985
tp986
sS'psf/records/board/minutes/2005-04-12'
p987
(NS'Python Software Foundation: Minutes of Board of Directors\n Meeting (April 12, 2005)'
Ntp988
sS'download/releases/2.5.1/bugs'
p989
(NS'Bugs in Python 2.5.1'
g282
tp990
sS'download/releases/2.4/notes'
p991
(NS'Notes'
S'Release Notes'
p992
tp993
sS'dev/summary/2004-02-01_2004-02-29'
p994
(NS'python-dev Summary for 2004-02-01 through 2004-02-29'
Ntp995
sS'download/releases/2.4/msi'
p996
(NS'Using Windows Installer'
S'Windows MSI Installer'
p997
tp998
sS'dev/peps/pep-0261'
p999
(NVPEP 261 -- Support for "wide" Unicode characters
Ntp1000
sS'about/success/esr'
p1001
(NS'Python Success Stories'
Ntp1002
sS'download/releases/2.1.2/rpms'
p1003
(NS'Linux RPMs for Python 2.1.2'
S'Linux RPMS'
p1004
tp1005
sS'dev/summary/2003-01-16_2003-01-31'
p1006
(NS'python-dev Summary for 2003-01-16 through 2003-01-31'
Ntp1007
sS'dev/summary/2005-04-16_2005-04-30'
p1008
(NS'python-dev Summary for 2005-04-16 through 2005-04-30'
Ntp1009
sS'download/releases/2.3.3/license'
p1010
(NS'Python 2.3.3 license'
g470
tp1011
sS'dev/summary/2001-07-1'
p1012
(NS'Python-dev summary: 2001-06-21 to 2001-07-04'
Ntp1013
sS'dev/summary/2001-07-2'
p1014
(NS'Python-dev summary: 2001-07-05 to 2001-07-15'
Ntp1015
sS'dev/summary/2001-07-3'
p1016
(NS'Python-dev summary: 2001-07-16 to 2001-07-31'
Ntp1017
sS'psf/records/board/minutes/2003-08-12'
p1018
(NS'Python Software Foundation: Minutes of Board of Directors\n Meeting (August 12, 2003)'
Ntp1019
sS'dev/summary/2004-07-16_2004-07-31'
p1020
(NS'python-dev Summary for 2004-07-16 through 2004-07-31'
Ntp1021
sS'dev/summary/2001-04-2'
p1022
(NS'Python-dev summary: 2001-04-12 to 2001-04-25'
Ntp1023
sS'dev/summary/2001-04-1'
p1024
(NS'Python-dev summary: 2001-03-29 to 2001-04-11'
Ntp1025
sS'community/sigs/current/doc-sig'
p1026
((((i__main__
Link
(dp1027
g19
S'/community/sigs/current/doc-sig/status/'
p1028
sg21
S'Status'
p1029
sg23
I00
sg24
Nsb(tt((i__main__
Link
(dp1030
g19
S'/community/sigs/current/doc-sig/stext/'
p1031
sg21
g911
sg23
I00
sg24
Nsb(tt((i__main__
Link
(dp1032
g19
S'/community/sigs/current/doc-sig/otherlangs/'
p1033
sg21
g359
sg23
I00
sg24
Nsb(tttS'Doc-SIG - Python Documentation Special Interest Group'
S'Doc SIG'
p1034
tp1035
sS'dev/summary/2005-01-01_2005-01-15'
p1036
(NS'python-dev Summary for 2005-01-01 through 2005-01-15'
Ntp1037
sS'dev/peps/pep-0224'
p1038
(NVPEP 224 -- Attribute Docstrings
Ntp1039
sS'dev/peps/pep-0225'
p1040
(NVPEP 225 -- Elementwise/Objectwise Operators
Ntp1041
sS'dev/peps/pep-0226'
p1042
(NVPEP 226 -- Python 2.1 Release Schedule
Ntp1043
sS'dev/peps/pep-0227'
p1044
(NVPEP 227 -- Statically Nested Scopes
Ntp1045
sS'dev/peps/pep-0220'
p1046
(NVPEP 220 -- Coroutines, Generators, Continuations
Ntp1047
sS'dev/peps/pep-0221'
p1048
(NVPEP 221 -- Import As
Ntp1049
sS'dev/summary/2005-07-01_2005-07-15'
p1050
(NS'python-dev Summary for 2005-07-01 through 2005-07-15'
Ntp1051
sS'dev/peps/pep-0223'
p1052
(NVPEP 223 -- Change the Meaning of \u005Cx Escapes
Ntp1053
sS'dev/summary/2003-10-01_2003-10-15'
p1054
(NS'python-dev Summary for 2003-10-01 through 2003-10-15'
Ntp1055
sS'dev/peps/pep-0228'
p1056
(NVPEP 228 -- Reworking Python's Numeric Model
Ntp1057
sS'dev/peps/pep-0229'
p1058
(NVPEP 229 -- Using Distutils to Build Python
Ntp1059
sS'psf/press-release/pr200103'
p1060
(NS'Python Software Foundation: Press Release 6-Mar-2001'
Ntp1061
sS'psf/press-release/pr20041221'
p1062
(NS'Python Software Foundation: Press Release 27-Dec-2004'
Ntp1063
sS'about/success/bats'
p1064
(NS'Python Success Stories'
Ntp1065
sS'psf/records/board/minutes/2007-07-09'
p1066
(NS'2007-07-09 PSF Board Meeting Minutes'
Ntp1067
sS'doc/faq/windows'
p1068
(NS'Windows FAQ'
S'Windows'
p1069
tp1070
sS'doc/essays/blurb'
p1071
(NS'What is Python?  Executive Summary'
Ntp1072
sS'download/releases/2.5/rpms'
p1073
(NS'Linux RPMs for Python 2.4.2'
Ntp1074
sS'dev/summary/2006-05-16_2006-05-31'
p1075
(Ng75
Ntp1076
sS'dev/peps/pep-0754'
p1077
(NVPEP 754 -- IEEE 754 Floating Point Special Values
Ntp1078
sS'doc/editors'
p1079
((((i__main__
Link
(dp1080
g19
S'/doc/editors/emacs/'
p1081
sg21
g198
sg23
I00
sg24
Nsb(tt((i__main__
Link
(dp1082
g19
S'/doc/editors/vim/'
p1083
sg21
g356
sg23
I00
sg24
Nsb(tttS'Editors for Python'
Ntp1084
sS'doc/faq/it/gui'
p1085
(NS'Graphic User Interface FAQ'
Ntp1086
sS'dev/summary/2003-02-01_2003-02-15'
p1087
(NS'python-dev Summary from 2003-02-01 through 2003-02-15'
Ntp1088
sS'dev/summary/2000-10-2'
p1089
(NS'Python-dev summary: 2000-10-17 to 2000-10-31'
Ntp1090
sS'dev/summary/2000-10-1'
p1091
(NS'Python-dev summary: 2000-10-01 to 2000-10-16'
Ntp1092
sS'download/releases/2.3.5/rpms'
p1093
(NS'Linux RPMs for Python 2.3.5'
g535
tp1094
sS'dev/summary/2002-10-01-2002-10-13'
p1095
(NS'python-dev Summary for 2003-10-01 through 2003-10-13'
Ntp1096
sS'doc/topics/database/docs'
p1097
(NS'Database Documentation'
S'Documentation'
p1098
tp1099
sS'doc/faq/programming'
p1100
((((i__main__
Link
(dp1101
g19
S'/doc/faq/programming/general/'
p1102
sg21
S'General'
p1103
sg23
I00
sg24
Nsb(tt((i__main__
Link
(dp1104
g19
S'/doc/faq/programming/programming/'
p1105
sg21
S'Programming'
p1106
sg23
I00
sg24
Nsb(tttS'General Programming FAQ'
S'Programming'
p1107
tp1108
sS'about/success/philips'
p1109
(NS'Python Success Stories'
Ntp1110
sS'psf/press-release/pr20021022'
p1111
(NS'Python Software Foundation: Press Release 22-Oct-2002'
Ntp1112
sS'community/sigs/retired/do-sig/issues'
p1113
(NS'Python Distributed Objects Special Interest Group'
S'Issues'
p1114
tp1115
sS'psf/records/board/conference'
p1116
(NS'Python Software Foundation Conference Committee'
Ntp1117
sS'psf/records/board/resolutions'
p1118
(NS'Python Software Foundation Resolutions'
Ntp1119
sS'download/releases/2.5.1/rpms'
p1120
(NS'Linux RPMs for Python 2.4.2'
Ntp1121
sS'doc/essays/graphs'
p1122
(NS'Python Patterns - Implementing Graphs'
Ntp1123
sS'download/releases/2.2.3/descrintro'
p1124
(NS'Unifying types and classes in Python 2.2'
S'New Style Classes'
p1125
tp1126
sS'psf/records/board/minutes/2002-08-13'
p1127
(NS'Python Software Foundation: Minutes of Board of Directors\n Meeting (August 13, 2002)'
Ntp1128
sS'psf/records/members/2002-02-06'
p1129
(NS'Python Software Foundation: Minutes of Feb. 2002 Member Meeting'
Ntp1130
sS'psf/records/members/2002-07/proxy-july-2002'
p1131
(NS'Appointment of Proxy for July 24, 2002 member meeting in San Diego, CA'
Ntp1132
sS'community/sigs/current/distutils-sig/tasks'
p1133
(NS'Python Distutils-SIG: Tasks and Division of Labour'
Ntp1134
sS'dev/summary/2006-03-16_2006-03-31'
p1135
(Ng75
Ntp1136
sS'dev/summary'
p1137
(NS'python-dev Summaries'
g635
tp1138
sS'psf/grants/report-2006-10'
p1139
(NS'2006-10-15 Grants Committee Status Report'
Ntp1140
sS'psf/records/members/2008-03-14/agenda'
p1141
(NS"Agenda of 2008 PSF Members' Meeting, 14 March 2008"
Ntp1142
sS'dev/tools'
p1143
(NS'Development Tools'
g617
tp1144
sS'download/releases/2.4/rpms'
p1145
(NS'Linux RPMs for Python 2.4'
S'Linux RPMSs'
p1146
tp1147
sS'psf/records/board/minutes/2003-10-14'
p1148
(NS'Python Software Foundation: Minutes of Board of Directors\n Meeting (October 14, 2003)'
Ntp1149
sS'dev/peps/pep-0251'
p1150
(NVPEP 251 -- Python 2.2 Release Schedule
Ntp1151
sS'dev/peps/pep-0319'
p1152
(NVPEP 319 -- Python Synchronize/Asynchronize Block
Ntp1153
sS'dev/peps/pep-0253'
p1154
(NVPEP 253 -- Subtyping Built-in Types
Ntp1155
sS'dev/peps/pep-0252'
p1156
(NVPEP 252 -- Making Types Look More Like Classes
Ntp1157
sS'dev/peps/pep-0255'
p1158
(NVPEP 255 -- Simple Generators
Ntp1159
sS'dev/peps/pep-0254'
p1160
(NVPEP 254 -- Making Classes Look More Like Types
Ntp1161
sS'psf/records/board/minutes/2005-03-08'
p1162
(NS'Python Software Foundation: Minutes of Board of Directors\n Meeting (March 8, 2005)'
Ntp1163
sS'dev/peps/pep-0256'
p1164
(NVPEP 256 -- Docstring Processing System Framework
Ntp1165
sS'dev/peps/pep-0310'
p1166
(NVPEP 310 -- Reliable Acquisition/Release Pairs
Ntp1167
sS'dev/peps/pep-0311'
p1168
(NVPEP 311 -- Simplified Global Interpreter Lock Acquisition for Extensions
Ntp1169
sS'dev/peps/pep-0312'
p1170
(NVPEP 312 -- Simple Implicit Lambda
Ntp1171
sS'dev/peps/pep-0313'
p1172
(NVPEP 313 -- Adding Roman Numeral Literals to Python
Ntp1173
sS'dev/peps/pep-0314'
p1174
(NVPEP 314 -- Metadata for Python Software Packages v1.1
Ntp1175
sS'dev/peps/pep-0315'
p1176
(NVPEP 315 -- Enhanced While Loop
Ntp1177
sS'dev/peps/pep-0316'
p1178
(NVPEP 316 -- Programming by Contract for Python
Ntp1179
sS'dev/peps/pep-0317'
p1180
(NVPEP 317 -- Eliminate Implicit Exception Instantiation
Ntp1181
sS'dev/peps/pep-3104'
p1182
(NVPEP 3104 -- Access to Names in Outer Scopes
Ntp1183
sS'dev/peps/pep-3105'
p1184
(NVPEP 3105 -- Make print a function
Ntp1185
sS'dev/peps/pep-3106'
p1186
(NVPEP 3106 -- Revamping dict.keys(), .values() and .items()
Ntp1187
sS'dev/peps/pep-3107'
p1188
(NVPEP 3107 -- Function Annotations
Ntp1189
sS'dev/peps/pep-3100'
p1190
(NVPEP 3100 -- Miscellaneous Python 3.0 Plans
Ntp1191
sS'dev/peps/pep-3101'
p1192
(NVPEP 3101 -- Advanced String Formatting
Ntp1193
sS'dev/peps/pep-3102'
p1194
(NVPEP 3102 -- Keyword-Only Arguments
Ntp1195
sS'dev/peps/pep-3103'
p1196
(NVPEP 3103 -- A Switch/Case Statement
Ntp1197
sS'download/releases/2.3.7/license'
p1198
(NS'Python 2.3.7 license'
g510
tp1199
sS'dev/summary/2003-03-01_2003-03-15'
p1200
(NS'python-dev Summary for 2003-03-01 through 2003-03-15'
Ntp1201
sS'community/pycon/ok'
p1202
(NS'PyCon Registration - Proceed to Checkout'
Ntp1203
sS'dev/peps/pep-3109'
p1204
(NVPEP 3109 -- Raising Exceptions in Python 3000
Ntp1205
sS'community/sigs/current/web-sig'
p1206
(NS'Web SIG'
S'Web SIG'
p1207
tp1208
sS'psf/records/board/minutes/2004-12-14'
p1209
(NS'Python Software Foundation: Minutes of Board of Directors Meeting (December 14, 2004)'
Ntp1210
sS'dev/summary/2006-12-01_2006-12-15'
p1211
(Ng75
Ntp1212
sS'doc/essays/everybody'
p1213
(NS'Computer Programming for Everybody'
Ntp1214
sS'dev/peps/pep-0299'
p1215
(NVPEP 299 -- Special __main__() function in modules
Ntp1216
sS'dev/summary/2006-02-01_2006-02-15'
p1217
(Ng75
Ntp1218
sS'psf/records/board/minutes/2008-10-13'
p1219
(NS'2008-10-13 PSF Board Meeting Minutes'
Ntp1220
sS'download/releases/2.4.1/license'
p1221
(NS'Python 2.4.1 - License'
S'License'
p1222
tp1223
sS'psf/records/board/minutes/2006-07-10'
p1224
(NS'Python Software Foundation Board Meeting Minutes 2006-07-10'
Ntp1225
sS'dev/peps/pep-0298'
p1226
(NVPEP 298 -- The Locked Buffer Interface
Ntp1227
sS'psf/records/board/treasurer/2003-12'
p1228
(NS"Python Software Foundation: Treasurer's Report (December 2003)"
Ntp1229
sS'download/releases/2.5'
p1230
((((i__main__
Link
(dp1231
g19
S'/download/releases/2.5/NEWS.txt/'
p1232
sg21
S'Release Notes'
p1233
sg23
I00
sg24
Nsb(tt((i__main__
Link
(dp1234
g19
S'/download/releases/2.5/IDLENEWS.txt/'
p1235
sg21
S'IDLE Release Notes'
p1236
sg23
I00
sg24
Nsb(tt((i__main__
Link
(dp1237
g19
S'/download/releases/2.5/highlights/'
p1238
sg21
S'Highlights'
p1239
sg23
I00
sg24
Nsb(tt((i__main__
Link
(dp1240
g19
S'/download/releases/2.5/bugs/'
p1241
sg21
S'Bugs'
p1242
sg23
I00
sg24
Nsb(tt((i__main__
Link
(dp1243
g19
S'/download/releases/2.5/license/'
p1244
sg21
S'License'
p1245
sg23
I00
sg24
Nsb(tt((i__main__
Link
(dp1246
g19
S'/download/releases/2.5/msi/'
p1247
sg21
S'Windows Installer Docs'
p1248
sg23
I00
sg24
Nsb(tttS'Python 2.5 Release'
Ntp1249
sS'download/releases/2.4'
p1250
((((i__main__
Link
(dp1251
g19
S'/download/releases/2.4/highlights/'
p1252
sg21
S'Highlights'
p1253
sg23
I00
sg24
Nsb(tt((i__main__
Link
(dp1254
g19
S'/download/releases/2.4/notes/'
p1255
sg21
g992
sg23
I00
sg24
Nsb(tt((i__main__
Link
(dp1256
g19
S'/download/releases/2.4/bugs/'
p1257
sg21
g764
sg23
I00
sg24
Nsb(tt((i__main__
Link
(dp1258
g19
S'/download/releases/2.4/license/'
p1259
sg21
S'License'
p1260
sg23
I00
sg24
Nsb(tt((i__main__
Link
(dp1261
g19
S'/download/releases/2.4/msi/'
p1262
sg21
g997
sg23
I00
sg24
Nsb(tt((i__main__
Link
(dp1263
g19
S'/download/releases/2.4/rpms/'
p1264
sg21
g1146
sg23
I00
sg24
Nsb(tttS'Python 2.4'
Ntp1265
sS'download/releases/2.4.3/rpms'
p1266
(NS'Linux RPMs for Python 2.4.3'
Ntp1267
sS'download/releases/2.6'
p1268
((((i__main__
Link
(dp1269
g19
S'/download/releases/2.6/NEWS.txt/'
p1270
sg21
S'Release Notes'
p1271
sg23
I00
sg24
Nsb(tt((i__main__
Link
(dp1272
g19
S'/download/releases/2.6/IDLENEWS.txt/'
p1273
sg21
S'IDLE Release Notes'
p1274
sg23
I00
sg24
Nsb(tt((i__main__
Link
(dp1275
g19
S'/download/releases/2.6/highlights/'
p1276
sg21
S'Highlights'
p1277
sg23
I00
sg24
Nsb(tt((i__main__
Link
(dp1278
g19
S'/download/releases/2.6/bugs/'
p1279
sg21
S'Bugs'
p1280
sg23
I00
sg24
Nsb(tt((i__main__
Link
(dp1281
g19
S'/download/releases/2.6/license/'
p1282
sg21
g404
sg23
I00
sg24
Nsb(tt((i__main__
Link
(dp1283
g19
S'/download/releases/2.6/msi/'
p1284
sg21
S'Windows Installer Docs'
p1285
sg23
I00
sg24
Nsb(tttS'Python 2.6 Release'
g421
tp1286
sS'download/releases/2.1'
p1287
((((i__main__
Link
(dp1288
g19
S'/download/releases/2.1/NEWS.txt/'
p1289
sg21
S'Release Notes'
p1290
sg23
I00
sg24
Nsb(tt((i__main__
Link
(dp1291
g19
S'/download/releases/2.1/license/'
p1292
sg21
g963
sg23
I00
sg24
Nsb(tt((i__main__
Link
(dp1293
g19
S'/download/releases/2.1/rpms/'
p1294
sg21
S'Linux RPMS'
p1295
sg23
I00
sg24
Nsb(tt((i__main__
Link
(dp1296
g19
S'/download/releases/2.1/press/'
p1297
sg21
S'Press Release'
p1298
sg23
I00
sg24
Nsb(tttS'Python 2.1'
Ntp1299
sS'download/releases/2.0'
p1300
(NS'Python 2.0'
Ntp1301
sS'download/releases/2.3'
p1302
((((i__main__
Link
(dp1303
g19
S'/download/releases/2.3/highlights/'
p1304
sg21
S'Highlights'
p1305
sg23
I00
sg24
Nsb(tt((i__main__
Link
(dp1306
g19
S'/download/releases/2.3/NEWS.txt/'
p1307
sg21
S'Release Notes'
p1308
sg23
I00
sg24
Nsb(tt((i__main__
Link
(dp1309
g19
S'/download/releases/2.3/bugs/'
p1310
sg21
g322
sg23
I00
sg24
Nsb(tt((i__main__
Link
(dp1311
g19
S'/download/releases/2.3/license/'
p1312
sg21
g548
sg23
I00
sg24
Nsb(tt((i__main__
Link
(dp1313
g19
S'/download/releases/2.3/rpms/'
p1314
sg21
g949
sg23
I00
sg24
Nsb(tttS'Python 2.3'
Ntp1315
sS'download/releases/2.2'
p1316
((((i__main__
Link
(dp1317
g19
S'/download/releases/2.2/NEWS.txt/'
p1318
sg21
S'Release Notes'
p1319
sg23
I00
sg24
Nsb(tt((i__main__
Link
(dp1320
g19
S'/download/releases/2.2/bugs/'
p1321
sg21
S'Bugs'
p1322
sg23
I00
sg24
Nsb(tt((i__main__
Link
(dp1323
g19
S'/download/releases/2.2/license/'
p1324
sg21
S'License'
p1325
sg23
I00
sg24
Nsb(tt((i__main__
Link
(dp1326
g19
S'/download/releases/2.2/rpms/'
p1327
sg21
g828
sg23
I00
sg24
Nsb(tttS'Python 2.2'
Ntp1328
sS'download/releases/2.1/rpms'
p1329
(NS'Linux RPMs for Python 2.1'
g1295
tp1330
sS'community/sigs/current/distutils-sig/doc/ipc7_devday'
p1331
(NS'Summary of "Extension Building" Session'
Ntp1332
sS'community/sigs/current/catalog-sig'
p1333
((((i__main__
Link
(dp1334
g19
S'/community/sigs/current/catalog-sig/others/'
p1335
sg21
S'Other Systems'
p1336
sg23
I00
sg24
Nsb(tt((i__main__
Link
(dp1337
g19
S'/community/sigs/current/catalog-sig/requirements/'
p1338
sg21
S'Requirements'
p1339
sg23
I00
sg24
Nsb(tttS'SIG for Python Resource Cataloguing'
S'Catalog SIG'
p1340
tp1341
sS'psf/records/board/minutes/2006-02-25'
p1342
(NS'Python Software Foundation Board Meeting Minutes 2006-02-25'
Ntp1343
sS'download/releases/1.6.1/download_win'
p1344
(NS'Download Python 1.6.1 Windows Installer'
S'Download Windows'
p1345
tp1346
sS'community/sigs/retired/pythonwin-sig/mission'
p1347
(NS'PYTHONWIN-SIG, A Special Interest Group on Win95/NT GUI version of Python'
Ntp1348
sS'doc/topics/2003'
p1349
(NS'The Year in Python: 2003'
Ntp1350
sS'psf/records/board/minutes/2003-06-10'
p1351
(NS'Python Software Foundation: Minutes of Board of Directors\n Meeting (June 10, 2003)'
Ntp1352
sS'dev/summary/2005-06-16_2005-06-30'
p1353
(NS'Python-dev Summary for 2005-06-16 through 2005-06-30'
Ntp1354
sS'dev/summary/2004-07-01_2004-07-15'
p1355
(NS'python-dev Summary for 2004-07-01 through 2004-07-15'
Ntp1356
sS'download/releases/2.2.2'
p1357
((((i__main__
Link
(dp1358
g19
S'/download/releases/2.2.2/NEWS.txt/'
p1359
sg21
S'Release Notes'
p1360
sg23
I00
sg24
Nsb(tt((i__main__
Link
(dp1361
g19
S'/download/releases/2.2.2/bugs/'
p1362
sg21
g343
sg23
I00
sg24
Nsb(tt((i__main__
Link
(dp1363
g19
S'/download/releases/2.2.2/license/'
p1364
sg21
S'License'
p1365
sg23
I00
sg24
Nsb(tt((i__main__
Link
(dp1366
g19
S'/download/releases/2.2.2/rpms/'
p1367
sg21
S'Linux RPMS'
p1368
sg23
I00
sg24
Nsb(tt((i__main__
Link
(dp1369
g19
S'/download/releases/2.2.2/macnotes.txt/'
p1370
sg21
S'Mac Release Notes'
p1371
sg23
I00
sg24
Nsb(tttS'Python 2.2.2'
Ntp1372
sS'download/releases/2.2.1'
p1373
((((i__main__
Link
(dp1374
g19
S'/download/releases/2.2.1/NEWS.txt/'
p1375
sg21
S'Release Notes'
p1376
sg23
I00
sg24
Nsb(tt((i__main__
Link
(dp1377
g19
S'/download/releases/2.2.1/bugs/'
p1378
sg21
g578
sg23
I00
sg24
Nsb(tt((i__main__
Link
(dp1379
g19
S'/download/releases/2.2.1/license/'
p1380
sg21
S'License'
p1381
sg23
I00
sg24
Nsb(tt((i__main__
Link
(dp1382
g19
S'/download/releases/2.2.1/rpms/'
p1383
sg21
g102
sg23
I00
sg24
Nsb(tt((i__main__
Link
(dp1384
g19
S'/download/releases/2.2.1/mac/'
p1385
sg21
S'Macintosh Page'
p1386
sg23
I00
sg24
Nsb(tt((i__main__
Link
(dp1387
g19
S'/download/releases/2.2.1/macnotes.txt/'
p1388
sg21
S'Mac Release Notes'
p1389
sg23
I00
sg24
Nsb(tttS'Python 2.2.1'
Ntp1390
sS'doc/faq/it'
p1391
(NS'Domande frequenti su Python'
Ntp1392
sS'doc/essays/stdexceptions'
p1393
(NS'Standard Exception Classes in Python 1.5'
Ntp1394
sS'about/success/rackspace'
p1395
(NS'Python Success Stories'
Ntp1396
sS'dev/summary/2005-11-01_2005-11-15'
p1397
(NS'python-dev Summary for 2005-11-01 through 2005-11-15'
Ntp1398
sS'download/releases/2.3/mro'
p1399
(NS'The Python 2.3 Method Resolution Order'
Ntp1400
sS'dev/summary/2004-03-16_2004-03-31'
p1401
(NS'python-dev Summary for 2004-03-16 through 2004-03-31'
Ntp1402
sS'psf/donations'
p1403
(NS'Donate to the PSF'
S'Donations'
p1404
tp1405
sS'psf/records/board/minutes/2008-08-11'
p1406
(NS'2008-08-11 PSF Board Meeting Minutes'
Ntp1407
sS'community/awards/frank-willison'
p1408
(NS'Frank Willison Award'
S'Frank Willison Award'
p1409
tp1410
sS'community/pycon/register'
p1411
(NS'PyCon Registration'
Ntp1412
sS'dev/summary/2006-07-01_2006-07-15'
p1413
(Ng75
Ntp1414
sS'community/sigs'
p1415
((((i__main__
Link
(dp1416
g713
S'/community/sigs/guidelines/'
p1417
sg715
S'Guidelines'
p1418
sg717
I00
sg718
Nsb(tt((i__main__
Link
(dp1419
g713
S'/community/sigs/coordination/'
p1420
sg715
S'Coordination'
p1421
sg717
I00
sg718
Nsb(tt((i__main__
Link
(dp1422
g713
S'/community/sigs/current/'
p1423
sg715
S'Current SIGS'
p1424
sg717
I00
sg718
Nsb(tt((i__main__
Link
(dp1425
g713
S'/community/sigs/retired/'
p1426
sg715
g761
sg717
I00
sg718
Nsb(tttS'Python Special Interest Groups'
S'Special Interest Groups'
tp1427
sS'dev/doc'
p1428
(NS'Documentation Development'
g626
tp1429
sS'doc/faq/library'
p1430
(NS'Library and Extension FAQ'
S'Library & Extensions'
p1431
tp1432
sS'psf/committees'
p1433
(NS'Committees of the Python Software Foundation'
S'Committees'
p1434
tp1435
sS'about/success/nexedi'
p1436
(NS'Python Success Stories'
Ntp1437
sS'community/sigs/current/db-sig'
p1438
((((i__main__
Link
(dp1439
g19
S'/community/sigs/current/db-sig/status/'
p1440
sg21
S'SIG Status'
p1441
sg23
I00
sg24
Nsb(tttS'SIG on Tabular Databases in Python'
S'Database SIG'
p1442
tp1443
sS'doc/topics'
p1444
((((i__main__
Link
(dp1445
g19
S'http://wiki.python.org/moin/BeginnersGuide'
p1446
sg21
S"Beginner's Guide"
p1447
sg23
I00
sg24
Nsb(tt((i__main__
Link
(dp1448
g19
S'http://wiki.python.org/moin/WebProgramming'
p1449
sg21
S'Web Programming'
p1450
sg23
I00
sg24
Nsb(tt((i__main__
Link
(dp1451
g19
S'http://pyxml.sourceforge.net/topics/'
p1452
sg21
S'XML'
p1453
sg23
I00
sg24
Nsb(tt((i__main__
Link
(dp1454
g19
S'http://wiki.python.org/moin/DatabaseProgramming'
p1455
sg21
S'Databases'
p1456
sg23
I00
sg24
Nsb(tt((i__main__
Link
(dp1457
g19
S'http://wiki.python.org/moin/GuiProgramming'
p1458
sg21
S'GUI Programming'
p1459
sg23
I00
sg24
Nsb(tt((i__main__
Link
(dp1460
g19
S'http://wiki.python.org/moin/NumericAndScientific'
p1461
sg21
S'Scientific Computing'
p1462
sg23
I00
sg24
Nsb(tt((i__main__
Link
(dp1463
g19
S'http://wiki.python.org/moin/TkInter'
p1464
sg21
S'Tkinter'
p1465
sg23
I00
sg24
Nsb(tt((i__main__
Link
(dp1466
g19
S'http://wiki.python.org/moin/LanguageParsing'
p1467
sg21
S'Parser Generators'
p1468
sg23
I00
sg24
Nsb(tttS'Topics'
S'Topic Guides'
p1469
tp1470
sS'download/releases/2.1.3/rpms'
p1471
(NS'Linux RPMs for Python 2.1.3'
g814
tp1472
sS'doc/topics/yisl2002'
p1473
(NS'The Year in Scripting Languages'
Ntp1474
sS'doc/topics/database/books'
p1475
(NS'Database Books'
S'Database Books'
p1476
tp1477
sS'dev/summary/2000-08-2'
p1478
(NS'Python-dev summary: 2000-08-16 to 2000-08-31'
Ntp1479
sS'download/releases/2.4.4/license'
p1480
(NS'Python 2.4.4 license'
S'License'
p1481
tp1482
sS'psf/summary'
p1483
(NS'Executive Summary: The Python Software Foundation'
S'Executive Summary'
p1484
tp1485
sS'dev/summary/2005-11-16_2005-11-30'
p1486
(NS'python-dev Summary for 2005-11-16 through 2005-11-30'
Ntp1487
sS'community/sigs/retired/progenv-sig/mission'
p1488
(NS'PROGENV-SIG, Discussion forum for Python programming-environment issues'
S'Mission'
p1489
tp1490
sS'download/releases/2.0.1'
p1491
((((i__main__
Link
(dp1492
g19
S'/download/releases/2.0.1/NEWS.txt/'
p1493
sg21
S'Release Notes'
p1494
sg23
I00
sg24
Nsb(tt((i__main__
Link
(dp1495
g19
S'/download/releases/2.0.1/press/'
p1496
sg21
S'Press Release'
p1497
sg23
I00
sg24
Nsb(tt((i__main__
Link
(dp1498
g19
S'/download/releases/2.0.1/license/'
p1499
sg21
S'License'
p1500
sg23
I00
sg24
Nsb(tt((i__main__
Link
(dp1501
g19
S'/download/releases/2.0.1/rpms/'
p1502
sg21
S'Linux RPMS'
p1503
sg23
I00
sg24
Nsb(tttS'Python 2.0.1 Release'
g438
tp1504
sS'doc/copyright'
p1505
(NS'Python Copyright'
Ntp1506
sS'download/releases/2.2.2/descrintro'
p1507
(NS'Unifying types and classes in Python 2.2'
Ntp1508
sS'community/sigs/current/distutils-sig/list'
p1509
(NS'Python Distutils-SIG: Mailing List'
g309
tp1510
sS'download/releases/2.1.1/press'
p1511
(NS'Python 2.1 Press Release'
S'Press Release'
p1512
tp1513
sS'psf/records/members/2006-02/ballot-february-2006'
p1514
(NS'Absentee ballot for February 24, 2006 member meeting in Dallas, TX'
Ntp1515
sS'psf/records/board/minutes/2008-07-14'
p1516
(NS'2008-07-14 PSF Board Meeting Minutes'
Ntp1517
sS'dev/peps/pep-0354'
p1518
(NVPEP 354 -- Enumerations in Python
Ntp1519
sS'dev/summary/2005-01-16_2005-01-31'
p1520
(NS'python-dev Summary for 2005-01-16 through 2005-01-31'
Ntp1521
sS'dev/peps/pep-0356'
p1522
(NVPEP 356 -- Python 2.5 Release Schedule
Ntp1523
sS'dev/peps/pep-0357'
p1524
(NVPEP 357 -- Allowing Any Object to be Used for Slicing
Ntp1525
sS'dev/peps/pep-0350'
p1526
(NVPEP 350 -- Codetags
Ntp1527
sS'dev/peps/pep-0351'
p1528
(NVPEP 351 -- The freeze protocol
Ntp1529
sS'dev/peps/pep-0352'
p1530
(NVPEP 352 -- Required Superclass for Exceptions
Ntp1531
sS'dev/peps/pep-0353'
p1532
(NVPEP 353 -- Using ssize_t as the index type
Ntp1533
sS'dev/summary/2005-02-15_2005-02-28'
p1534
(NS'python-dev Summary for 2005-02-15 through 2005-02-28'
Ntp1535
sS'dev/peps/pep-3132'
p1536
(NVPEP 3132 -- Extended Iterable Unpacking
Ntp1537
sS'dev/peps/pep-0358'
p1538
(NVPEP 358 -- The "bytes" Object
Ntp1539
sS'dev/peps/pep-0359'
p1540
(NVPEP 359 -- The "make" Statement
Ntp1541
sS'dev/summary/2006-05-01_2006-05-15'
p1542
(Ng75
Ntp1543
sS'psf/records/board/minutes/2008-04-14'
p1544
(NS'2008-04-14 PSF Board Meeting Minutes'
Ntp1545
sS'download/svn'
p1546
(NS'Source Access Via Subversion'
g189
tp1547
sS'download/releases/2.4.5/license'
p1548
(NS'Python 2.4.4 license'
S'License'
p1549
tp1550
sS'dev/summary/2004-12-16_2004-12-31'
p1551
(NS'python-dev Summary for 2004-12-16 through 2004-12-31'
Ntp1552
sS'psf/about'
p1553
(NS'About the Python Software Foundation'
S'About the PSF'
p1554
tp1555
sS'dev/summary/2003-10-16_2003-11-15'
p1556
(NS'python-dev Summary for 2003-10-16 through 2003-11-15'
Ntp1557
sS'doc'
p1558
((((i__main__
Link
(dp1559
g19
S'http://docs.python.org'
p1560
sg21
S'Current Docs'
p1561
sg23
I00
sg24
Nsb(tt((i__main__
Link
(dp1562
g19
S'http://wiki.python.org/moin/BeginnersGuide'
p1563
sg21
S"Beginner's Guide"
p1564
sg23
I00
sg24
Nsb(tt((i__main__
Link
(dp1565
g19
S'/doc/faq/'
p1566
sg21
S'FAQs'
p1567
sg23
I00
sg24
Nsb(tt((i__main__
Link
(dp1568
g19
S'http://wiki.python.org/moin/'
p1569
sg21
S'Wiki'
p1570
sg23
I00
sg24
Nsb(tt((i__main__
Link
(dp1571
g19
S'/doc/other/'
p1572
sg21
S'Other Doc Resources'
p1573
sg23
I00
sg24
Nsb(tt((i__main__
Link
(dp1574
g19
S'/dev/peps/'
p1575
sg21
S'PEP Index'
p1576
sg23
I00
sg24
Nsb(tt((i__main__
Link
(dp1577
g19
S'http://wiki.python.org/moin/PythonBooks'
p1578
sg21
S'Book List'
p1579
sg23
I00
sg24
Nsb(tt((i__main__
Link
(dp1580
g19
S'/doc/topics/'
p1581
sg21
g1469
sg23
I00
sg24
Nsb(tt((i__main__
Link
(dp1582
g19
S'/doc/newstyle/'
p1583
sg21
g335
sg23
I00
sg24
Nsb(tt((i__main__
Link
(dp1584
g19
S'http://docs.python.org/library/re.html'
p1585
sg21
S'Regular Expressions'
p1586
sg23
I00
sg24
Nsb(tt((i__main__
Link
(dp1587
g19
S'/doc/av/'
p1588
sg21
S'Audio/Visual Talks'
p1589
sg23
I00
sg24
Nsb(tttS'Python Documentation Index'
S'Documentation'
tp1590
sS'psf/forms'
p1591
(NS'PSF Membership Forms'
S'Membership Forms'
p1592
tp1593
sS'download/releases/2.5/bugs'
p1594
(NS'Bugs in Python 2.5'
g1242
tp1595
sS'dev/summary/2004-08-16_2004-08-31'
p1596
(NS'python-dev Summary for 2004-08-16 through 2004-08-31'
Ntp1597
sS'dev/setup'
p1598
(NS'Setting Up for Developing Python'
g603
tp1599
sS'dev/summary/2004-06-16_2004-06-30'
p1600
(NS'python-dev Summary for 2004-06-16 through 2004-06-30'
Ntp1601
sS'dev/peps/pep-0219'
p1602
(NVPEP 219 -- Stackless Python
Ntp1603
sS'dev/peps/pep-0218'
p1604
(NVPEP 218 -- Adding a Built-In Set Object Type
Ntp1605
sS'dev/peps/pep-0215'
p1606
(NVPEP 215 -- String Interpolation
Ntp1607
sS'download/releases/2.2.3'
p1608
((((i__main__
Link
(dp1609
g19
S'/download/releases/2.2.3/NEWS.txt/'
p1610
sg21
S"What's New"
p1611
sg23
I00
sg24
Nsb(tt((i__main__
Link
(dp1612
g19
S'/download/releases/2.2.3/descrintro/'
p1613
sg21
g1125
sg23
I00
sg24
Nsb(tt((i__main__
Link
(dp1614
g19
S'/download/releases/2.2.3/bugs/'
p1615
sg21
g914
sg23
I00
sg24
Nsb(tt((i__main__
Link
(dp1616
g19
S'/download/releases/2.2.3/license/'
p1617
sg21
S'License'
p1618
sg23
I00
sg24
Nsb(tt((i__main__
Link
(dp1619
g19
S'/download/releases/2.2.3/rpms/'
p1620
sg21
S'Linux RPMS'
p1621
sg23
I00
sg24
Nsb(tttS'Python 2.2.3'
g432
tp1622
sS'dev/peps/pep-0217'
p1623
(NVPEP 217 -- Display Hook for Interactive Use
Ntp1624
sS'dev/peps/pep-0216'
p1625
(NVPEP 216 -- Docstring Format
Ntp1626
sS'dev/peps/pep-0211'
p1627
(NVPEP 211 -- Adding A New Outer Product Operator
Ntp1628
sS'dev/peps/pep-0210'
p1629
(NVPEP 210 -- Decoupling the Interpreter Loop
Ntp1630
sS'dev/peps/pep-0213'
p1631
(NVPEP 213 -- Attribute Access Handlers
Ntp1632
sS'doc/faq/extending'
p1633
(NS'Extending and Embedding FAQ'
S'Extending & Embedding'
p1634
tp1635
sS'psf/records/exemption'
p1636
(NS'Python Software Foundation: Missing 1023 form'
Ntp1637
sS'dev/summary/2006-06-01_2006-06-15'
p1638
(Ng75
Ntp1639
sS'about/success/xist'
p1640
(NS'Python Success Stories'
Ntp1641
sS'psf/records/members/2008-03-14'
p1642
(NS"2008 PSF Members' Meeting Minutes"
Ntp1643
sS'doc/essays/list2str'
p1644
(NS'Python Patterns - An Optimization Anecdote'
Ntp1645
sS'dev/buildbot/community'
p1646
(NS'Python Community Buildbot'
Ntp1647
sS'download/releases/2.4.2/license'
p1648
(NS'Python 2.4.2 license'
g940
tp1649
sS'psf/records/board/minutes/2003-05-13'
p1650
(NS'Python Software Foundation: Minutes of Board of Directors\n Meeting (May 13, 2003)'
Ntp1651
sS'psf/records/board/minutes/2004-03-26'
p1652
(NS'Python Software Foundation: Minutes of Board of Directors\n Meeting (March 26, 2004)'
Ntp1653
sS'dev/summary/2006-04-16_2006-04-30'
p1654
(Ng75
Ntp1655
sS'community/sigs/retired/types-sig/typeclass'
p1656
(NS'Details on the types vs. classes dichotomy'
S'Type Class'
p1657
tp1658
sS'psf/records/board/minutes/2006-01-10'
p1659
(NS'Python Software Foundation: Minutes of Board of Directors Meeting, January 10, 2006'
Ntp1660
sS'download/releases/2.0.1/rpms'
p1661
(NS'Linux RPMs for Python 2.1'
g1503
tp1662
sS'doc/other'
p1663
(NS'Other Python Documentation Collections'
g1573
tp1664
sS'dev/faq'
p1665
(NS'Frequently Asked Questions for Python Developers'
g629
tp1666
sS'dev/peps/pep-0305'
p1667
(NVPEP 305 -- CSV File API
Ntp1668
sS'dev/peps/pep-0321'
p1669
(NVPEP 321 -- Date/Time Parsing and Formatting
Ntp1670
sS'dev/peps/pep-0320'
p1671
(NVPEP 320 -- Python 2.4 Release Schedule
Ntp1672
sS'community/sigs/current/catalog-sig/requirements'
p1673
(NS'Catalog Requirements'
g1339
tp1674
sS'dev/peps/pep-0322'
p1675
(NVPEP 322 -- Reverse Iteration
Ntp1676
sS'dev/peps/pep-0325'
p1677
(NVPEP 325 -- Resource-Release Support for Generators
Ntp1678
sS'community/sigs/current/meta-sig'
p1679
(NS'SIG on PSF SIGs and Mailing Lists'
S'Meta SIG'
p1680
tp1681
sS'about/success/astra'
p1682
(NS'Python Success Stories'
Ntp1683
sS'dev/peps/pep-0326'
p1684
(NVPEP 326 -- A Case for Top and Bottom Values
Ntp1685
sS'dev/peps/pep-0329'
p1686
(NVPEP 329 -- Treating Builtins as Constants in the Standard Library
Ntp1687
sS'dev/summary/2004-11-16_2004-11-30'
p1688
(NS'python-dev Summary for 2004-11-16 through 2004-11-30'
Ntp1689
sS'psf/forms/application'
p1690
(NS'Python Software Foundation: Membership Application for Nominated Member'
Ntp1691
sS'doc/faq/installed'
p1692
(NS'Why is Python installed on my computer?'
S'Why is Python on my computer?'
p1693
tp1694
sS'about/success/cog'
p1695
(NS'Python Success Stories'
Ntp1696
sS'dev/peps/pep-0101'
p1697
(NVPEP 101 -- Doing Python Releases 101
Ntp1698
sS'psf/records/board/minutes/2002-10-08'
p1699
(NS'Python Software Foundation: Minutes of Board of Directors\n Meeting (October 8, 2002)'
Ntp1700
sS'dev/peps/pep-0102'
p1701
(NVPEP 102 -- Doing Python Micro Releases
Ntp1702
sS'dev/peps/pep-0666'
p1703
(NVPEP 666 -- Reject Foolish Indentation
Ntp1704
sS'psf/records/members/2001-03-05'
p1705
(NS'Python Software Foundation: Minutes of the 1st Annual Meeting'
Ntp1706
sS'psf/records/board/minutes/2005-07-12'
p1707
(NS'Python Software Foundation: Minutes of Board of Directors Meeting (July 12, 2005)'
Ntp1708
sS'community/sigs/retired/progenv-sig'
p1709
((((i__main__
Link
(dp1710
g19
S'/community/sigs/retired/progenv-sig/mission/'
p1711
sg21
g1489
sg23
I00
sg24
Nsb(tttS'Progenv SIG - Python programming-environment issues'
g757
tp1712
sS'download/releases/2.4.1'
p1713
((((i__main__
Link
(dp1714
g19
S'/download/releases/2.4.1/notes/'
p1715
sg21
S'Release Notes'
p1716
sg23
I00
sg24
Nsb(tt((i__main__
Link
(dp1717
g19
S'/download/releases/2.4.1/bugs/'
p1718
sg21
g325
sg23
I00
sg24
Nsb(tt((i__main__
Link
(dp1719
g19
S'/download/releases/2.4.1/license/'
p1720
sg21
g1222
sg23
I00
sg24
Nsb(tt((i__main__
Link
(dp1721
g19
S'/download/releases/2.4/msi/'
p1722
sg21
S'Windows MSI Installer'
p1723
sg23
I00
sg24
Nsb(tt((i__main__
Link
(dp1724
g19
S'/download/releases/2.4.1/rpms/'
p1725
sg21
S'Linux RPMS'
p1726
sg23
I00
sg24
Nsb(tttS'Python 2.4.1'
Ntp1727
sS'download/releases/2.4.3'
p1728
((((i__main__
Link
(dp1729
g19
S'/download/releases/2.4.3/NEWS.txt/'
p1730
sg21
S'Release Notes'
p1731
sg23
I00
sg24
Nsb(tt((i__main__
Link
(dp1732
g19
S'/download/releases/2.4.3/bugs/'
p1733
sg21
g366
sg23
I00
sg24
Nsb(tt((i__main__
Link
(dp1734
g19
S'/download/releases/2.4.3/license/'
p1735
sg21
g923
sg23
I00
sg24
Nsb(tt((i__main__
Link
(dp1736
g19
S'/download/releases/2.4/msi/'
p1737
sg21
S'Windows MSI Installer'
p1738
sg23
I00
sg24
Nsb(tttS'Python 2.4.3 Release'
Ntp1739
sS'community/sigs/retired/import-sig'
p1740
(NS'Import Sig'
g726
tp1741
sS'doc/av/5minutes'
p1742
(NS'5 Minutes with Python - A Video Series'
S'5-Minutes with Python'
p1743
tp1744
sS'download/releases/2.4.4'
p1745
((((i__main__
Link
(dp1746
g19
S'/download/releases/2.4.4/NEWS.txt/'
p1747
sg21
S'Release Notes'
p1748
sg23
I00
sg24
Nsb(tt((i__main__
Link
(dp1749
g19
S'/download/releases/2.4.4/bugs/'
p1750
sg21
S'Bugs'
p1751
sg23
I00
sg24
Nsb(tt((i__main__
Link
(dp1752
g19
S'/download/releases/2.4.4/license/'
p1753
sg21
g1481
sg23
I00
sg24
Nsb(tt((i__main__
Link
(dp1754
g19
S'/download/releases/2.4/msi/'
p1755
sg21
S'Windows MSI Installer'
p1756
sg23
I00
sg24
Nsb(tttS'Python 2.4.4 Release'
Ntp1757
sS'doc/essays/packages'
p1758
(NS'Built-in Package Support in Python 1.5'
Ntp1759
sS'community/jobs/howto'
p1760
(NS'How To Submit to the Python Job Board'
Ntp1761
sS'dev/summary/2006-10-16_2006-10-31'
p1762
(Ng75
Ntp1763
sS'about/success/ezro'
p1764
(NS'Python Success Stories'
Ntp1765
sS'dev/peps/pep-3139'
p1766
(NVPEP 3139 -- Cleaning out sys and the "interpreter" module
Ntp1767
sS'dev/peps/pep-3138'
p1768
(NVPEP 3138 -- String representation in Python 3000
Ntp1769
sS'dev/peps/pep-3135'
p1770
(NVPEP 3135 -- New Super
Ntp1771
sS'dev/peps/pep-3134'
p1772
(NVPEP 3134 -- Exception Chaining and Embedded Tracebacks
Ntp1773
sS'dev/peps/pep-3137'
p1774
(NVPEP 3137 -- Immutable Bytes and Mutable Buffer
Ntp1775
sS'dev/peps/pep-3136'
p1776
(NVPEP 3136 -- Labeled break and continue
Ntp1777
sS'dev/peps/pep-3131'
p1778
(NVPEP 3131 -- Supporting Non-ASCII Identifiers
Ntp1779
sS'dev/peps/pep-3130'
p1780
(NVPEP 3130 -- Access to Current Module/Class/Function
Ntp1781
sS'dev/peps/pep-3133'
p1782
(NVPEP 3133 -- Introducing Roles
Ntp1783
sS'community/sigs/retired/parser-sig/towards-standard'
p1784
(NS'Towards a Standard Parser Generator</title>'
g22
tp1785
sS'psf/records/board/minutes/2007-11-12'
p1786
(NS'2007-11-12 PSF Board Meeting Minutes'
Ntp1787
sS'dev/peps/pep-0323'
p1788
(NVPEP 323 -- Copyable Iterators
Ntp1789
sS'about/website'
p1790
(NS'About the Website'
S'Website'
tp1791
sS'psf/grants'
p1792
(NS'PSF Grants Program'
S'Grants Program'
p1793
tp1794
sS'dev/summary/2003-08-16_2003-08-31'
p1795
(NS'python-dev Summary for 2003-08-16 through 2003-08-31'
Ntp1796
sS'psf/records/board/minutes/2006-12-11'
p1797
(NS'2006-12-11 PSF Board Meeting Minutes'
Ntp1798
sS'about/success/journyx'
p1799
(NS'Python Success Stories'
Ntp1800
sS'dev/summary/2002-11-01_2002-11-15'
p1801
(NS'python-dev Summary, 2002-11-01 through 2002-11-15'
Ntp1802
sS'psf/press-release/pr20030213'
p1803
(NS'Python Software Foundation: Press Release 13-Feb-2003'
Ntp1804
sS'psf/records/board/minutes/2007-10-08'
p1805
(NS'2007-10-08 PSF Board Meeting Minutes'
Ntp1806
sS'dev/peps/pep-3115'
p1807
(NVPEP 3115 -- Metaclasses in Python 3000
Ntp1808
sS'doc/faq'
p1809
((((i__main__
Link
(dp1810
g19
S'/doc/faq/general/'
p1811
sg21
g954
sg23
I00
sg24
Nsb(tt((i__main__
Link
(dp1812
g19
S'/doc/faq/programming/'
p1813
sg21
g1107
sg23
I00
sg24
Nsb(tt((i__main__
Link
(dp1814
g19
S'/doc/faq/library/'
p1815
sg21
g1431
sg23
I00
sg24
Nsb(tt((i__main__
Link
(dp1816
g19
S'/doc/faq/extending/'
p1817
sg21
g1634
sg23
I00
sg24
Nsb(tt((i__main__
Link
(dp1818
g19
S'/doc/faq/windows/'
p1819
sg21
g1069
sg23
I00
sg24
Nsb(tt((i__main__
Link
(dp1820
g19
S'/doc/faq/gui/'
p1821
sg21
S'GUI Programming'
p1822
sg23
I00
sg24
Nsb(tt((i__main__
Link
(dp1823
g19
S'/doc/faq/installed/'
p1824
sg21
g1693
sg23
I00
sg24
Nsb(tt((i__main__
Link
(dp1825
g19
S'http://wiki.python.org/moin/'
p1826
sg21
S'Wiki'
p1827
sg23
I00
sg24
Nsb(tttS'Python Frequently Asked Questions'
g1567
tp1828
sS'about/success/eztrip'
p1829
(NS'Python Success Stories'
Ntp1830
sS'community/sigs/retired/matrix-sig/faq'
p1831
(NS'[PYTHON MATRIX-SIG] FAQ'
S'FAQ'
p1832
tp1833
sS'dev/peps/pep-0274'
p1834
(NVPEP 274 -- Dict Comprehensions
Ntp1835
sS'doc/essays/foreword2'
p1836
(NS'Foreword for "Programming Python" (2nd ed.)'
Ntp1837
sS'doc/faq/es/general'
p1838
(NS'FAQ General de Python'
S'General'
p1839
tp1840
sS'download/releases/2.5/license'
p1841
(NS'Python 2.5 license'
g1245
tp1842
sS'dev/buildbot'
p1843
(NS'Python Buildbot'
g623
tp1844
sS'dev/searchplugin'
p1845
(NS'Python Dev Firefox Search Plugin'
Ntp1846
sS'community/pycon/fatal'
p1847
(NS'PyCon Registration - Fatal Error'
Ntp1848
sS'doc/av'
p1849
((((i__main__
Link
(dp1850
g19
S'/doc/av/5minutes/'
p1851
sg21
g1743
sg23
I00
sg24
Nsb(tt((i__main__
Link
(dp1852
g19
S'/doc/slideshows/'
p1853
sg21
S'Slideshow collections'
p1854
sg23
I00
sg24
Nsb(tt((i__main__
Link
(dp1855
g19
S'/doc/av/howto/'
p1856
sg21
S'How to create screencasts'
p1857
sg23
I00
sg24
Nsb(tttS'Audio/Video Resources for Python'
g1589
tp1858
sS'dev/summary/2003-09-16_2003-09-30'
p1859
(NS'python-dev Summary from 2003-09-16 through 2003-09-30'
Ntp1860
sS'psf/records/board/conference/2003-12'
p1861
(NS'Python Software Foundation: Python Conference Committee Report (December 2003)'
Ntp1862
sS'dev/summary/2004-01-01_2004-01-31'
p1863
(NS'python-dev Summary for 2004-01-01 through 2004-01-31'
Ntp1864
sS'download/releases/2.1.3/notes'
p1865
(NS'Notes'
g808
tp1866
sS'community/sigs/current/distutils-sig/requirements'
p1867
(NS'Python Distutils-SIG: Requirements'
g314
tp1868
sS'download/releases/2.4.4/bugs'
p1869
(NS'Bugs in Python 2.4.4'
g1751
tp1870
sS'dev/peps/pep-0214'
p1871
(NVPEP 214 -- Extended Print Statement
Ntp1872
sS'psf/records/board/minutes/2005-10-11'
p1873
(NS'Python Software Foundation: Minutes of Board of Directors Meeting, October 11, 2005 (Draft)'
Ntp1874
sS'download/releases/2.3.6/bugs'
p1875
(NS'Bugs in Python 2.3.6'
g496
tp1876
sS'dev/summary/2003-07-01_2003-07-31'
p1877
(NS'python-dev Summary for 2003-07-01 through 2003-07-31'
Ntp1878
sS'news'
p1879
((((i__main__
Link
(dp1880
g713
S'/news/security/'
p1881
sg715
S'Security Advisories'
p1882
sg717
I00
sg718
Nsb(tttS'Python News'
S'News'
tp1883
sS'dev/peps/pep-0324'
p1884
(NVPEP 324 -- subprocess - New process module
Ntp1885
sS'psf/contrib/contrib-form'
p1886
(NS'PSF Contributor Agreement'
Ntp1887
sS'psf/records/board/minutes/2002-05-14'
p1888
(NS'Python Software Foundation: Minutes of Board of Directors\n Meeting (May 14, 2002)'
Ntp1889
sS'download/releases/2.3.4/bugs'
p1890
(NS'Bugs in Python 2.3.4'
g518
tp1891
sS'dev/summary/2005-05-01_2005-05-15'
p1892
(NS'python-dev Summary for 2005-05-01 through 2005-05-15'
Ntp1893
sS'download/releases/2.1.1/fsf'
p1894
(NS'FSF statement'
Ntp1895
sS'dev/peps/pep-0372'
p1896
(NVPEP 372 -- Adding an ordered dictionary to collections
Ntp1897
sS'dev/summary/2004-08-01_2004-08-15'
p1898
(NS'python-dev Summary for 2004-08-01 through 2004-08-15'
Ntp1899
sS'download/releases/2.4.5'
p1900
((((i__main__
Link
(dp1901
g19
S'/download/releases/2.4.5/NEWS.txt/'
p1902
sg21
S'Release Notes'
p1903
sg23
I00
sg24
Nsb(tt((i__main__
Link
(dp1904
g19
S'/download/releases/2.4.5/bugs/'
p1905
sg21
S'Bugs'
p1906
sg23
I00
sg24
Nsb(tt((i__main__
Link
(dp1907
g19
S'/download/releases/2.4.5/license/'
p1908
sg21
g1549
sg23
I00
sg24
Nsb(tttS'Python 2.4.5 Release'
g426
tp1909
sS'dev/peps/pep-0279'
p1910
(NVPEP 279 -- The enumerate() built-in function
Ntp1911
sS'community/pycon/register-early'
p1912
(NS'PyCon Registration Form'
Ntp1913
sS'about/success/testgo'
p1914
(NS'Python Success Stories'
Ntp1915
sS'psf/records/board/minutes/2005-06-14'
p1916
(NS'Python Software Foundation: Minutes of Board of Directors\n Meeting (June 14, 2005)'
Ntp1917
sS'dev/peps/pep-0278'
p1918
(NVPEP 278 -- Universal Newline Support
Ntp1919
sS'dev/peps/pep-0318'
p1920
(NVPEP 318 -- Decorators for Functions and Methods
Ntp1921
sS'psf/records/board/minutes/2008-03-14'
p1922
(NS'2008-03-14 PSF Board Meeting Minutes'
Ntp1923
sS'psf/records/board/minutes/2008-03-10'
p1924
(NS'2008-03-10 PSF Board Meeting Minutes'
Ntp1925
sS'download/releases/2.4/highlights'
p1926
(NS'Highlights: Python 2.4'
g1253
tp1927
sS'community'
p1928
((((i__main__
Link
(dp1929
g19
S'/community/pycon/'
p1930
sg21
g82
sg23
I00
sg24
Nsb(tt((i__main__
Link
(dp1931
g19
S'/community/workshops/'
p1932
sg21
g230
sg23
I00
sg24
Nsb(tt((i__main__
Link
(dp1933
g19
S'/community/awards/'
p1934
sg21
S'Awards'
p1935
sg23
I00
sg24
Nsb(tt((i__main__
Link
(dp1936
g19
S'/community/lists/'
p1937
sg21
g272
sg23
I00
sg24
Nsb(tt((i__main__
Link
(dp1938
g19
S'http://wiki.python.org/moin/LocalUserGroups'
p1939
sg21
S'User Groups'
p1940
sg23
I00
sg24
Nsb(tt((i__main__
Link
(dp1941
g19
S'/community/sigs/'
p1942
sg21
S'Special Interest Groups'
p1943
sg23
I00
sg24
Nsb(tt((i__main__
Link
(dp1944
g19
S'/community/irc/'
p1945
sg21
S'Internet Relay Chat'
p1946
sg23
I00
sg24
Nsb(tt((i__main__
Link
(dp1947
g19
S'http://wiki.python.org/moin/'
p1948
sg21
S'Python Wiki'
p1949
sg23
I00
sg24
Nsb(tt((i__main__
Link
(dp1950
g19
S'/community/logos/'
p1951
sg21
S'Logos'
p1952
sg23
I00
sg24
Nsb(tt((i__main__
Link
(dp1953
g19
S'/community/jobs/'
p1954
sg21
S'Jobs'
p1955
sg23
I00
sg24
Nsb(tt((i__main__
Link
(dp1956
g19
S'http://planet.python.org/'
p1957
sg21
S'Weblogs'
p1958
sg23
I00
sg24
Nsb(tt((i__main__
Link
(dp1959
g19
S'http://wiki.python.org/moin/PythonEvents'
p1960
sg21
S'Event Calendar'
p1961
sg23
I00
sg24
Nsb(tt((i__main__
Link
(dp1962
g19
S'http://wiki.python.org/moin/PythonTraining'
p1963
sg21
S'Training Classes'
p1964
sg23
I00
sg24
Nsb(tt((i__main__
Link
(dp1965
g19
S'http://wiki.python.org/moin/PythonWriters'
p1966
sg21
S'Writers/TechEditors'
p1967
sg23
I00
sg24
Nsb(tt((i__main__
Link
(dp1968
g19
S'http://www.cafepress.com/pydotorg'
p1969
sg21
S'Python Merchandise'
p1970
sg23
I00
sg24
Nsb(tttS'Python Community'
S'Community'
tp1971
sS'dev/summary/2000-09-1'
p1972
(NS'Python-dev summary: 2000-09-01 to 2000-09-15'
Ntp1973
sS'psf/records/board/minutes/2002-09-10'
p1974
(NS'Python Software Foundation: Minutes of Board of Directors\n Meeting (September 10, 2002)'
Ntp1975
sS'download/contributed'
p1976
(NS'Contributed Python Software'
g192
tp1977
sS'dev/summary/2006-03-01_2006-03-15'
p1978
(Ng75
Ntp1979
sS'doc/essays/foreword'
p1980
(NS'Foreword for "Programming Python" (1st ed.)'
Ntp1981
sS'news/security/PSF-2006-001'
p1982
(NS'PSF-2006-001 - Buffer overrun in repr() for UCS-4 encoded unicode strings'
Ntp1983
sS'community/jobs'
p1984
((((i__main__
Link
(dp1985
g19
S'http://www.careerbuilder.com/JobSeeker/Jobs/JobResults.aspx?S%3Asbkw=python&S%3Asbcn=&S%3Asbsn=ALL&S%3Asbfr=30&S%3Asbsbmt=Search'
p1986
sg21
S'Careerbuilder.com'
p1987
sg23
I00
sg24
Nsb(tt((i__main__
Link
(dp1988
g19
S'http://www.search.computerjobs.com/job_results.aspx?s_kw=python'
p1989
sg21
S'ComputerJobs.com'
p1990
sg23
I00
sg24
Nsb(tt((i__main__
Link
(dp1991
g19
S'http://seeker.dice.com/jobsearch/servlet/JobSearch?FREE_TEXT=python&op=100'
p1992
sg21
S'DICE'
p1993
sg23
I00
sg24
Nsb(tt((i__main__
Link
(dp1994
g19
S'http://www.indeed.com/jobs?q=python'
p1995
sg21
S'Indeed (Aggregator)'
p1996
sg23
I00
sg24
Nsb(tt((i__main__
Link
(dp1997
g19
S'http://www.juju.com/keyword/python'
p1998
sg21
S'Juju.com (Aggregator)'
p1999
sg23
I00
sg24
Nsb(tt((i__main__
Link
(dp2000
g19
S'http://www.mojolin.com/python_job.php'
p2001
sg21
S'Mojolin'
p2002
sg23
I00
sg24
Nsb(tt((i__main__
Link
(dp2003
g19
S'http://jobsearch.monster.com/jobsearch.asp?q=Python&amp;sort=rv&amp;vw=b&amp;cy=US&amp;re=14&amp;brd=1,1862,1863'
p2004
sg21
S'Monster.com'
p2005
sg23
I00
sg24
Nsb(tt((i__main__
Link
(dp2006
g19
S'http://www.opensourcexperts.com/Jobs/index_html/Python'
p2007
sg21
S'opensourceXperts.com'
p2008
sg23
I00
sg24
Nsb(tt((i__main__
Link
(dp2009
g19
S'http://python.jobmart.com/'
p2010
sg21
S'Python/Zope Job Mart'
p2011
sg23
I00
sg24
Nsb(tt((i__main__
Link
(dp2012
g19
S'http://www.uklug.co.uk/cgi-bin/gethtmljobs.pl?K=python'
p2013
sg21
S'Uklug'
p2014
sg23
I00
sg24
Nsb(tttS'Python Job Board'
g1955
tp2015
sS'dev/why'
p2016
(NS'Why Develop Python?'
g600
tp2017
sS'psf/records/board/minutes/2002-02-12'
p2018
(NS'Python Software Foundation: Minutes of Board of Directors\n Meeting (Feb. 12, 2002)'
Ntp2019
sS'download/releases/1.5'
p2020
(NS'Python 1.5.2'
g444
tp2021
sS'dev/peps/pep-0242'
p2022
(NVPEP 242 -- Numeric Kinds
Ntp2023
sS'dev/peps/pep-0243'
p2024
(NVPEP 243 -- Module Repository Upload Mechanism
Ntp2025
sS'dev/peps/pep-0240'
p2026
(NVPEP 240 -- Adding a Rational Literal to Python
Ntp2027
sS'dev/summary/2000-09-2'
p2028
(NS'Python-dev summary: 2000-09-16 to 2000-09-30'
Ntp2029
sS'dev/peps/pep-0246'
p2030
(NVPEP 246 -- Object Adaptation
Ntp2031
sS'dev/peps/pep-0368'
p2032
(NVPEP 368 -- Standard image protocol and class
Ntp2033
sS'dev/peps/pep-0244'
p2034
(NVPEP 244 -- The `directive' statement
Ntp2035
sS'dev/peps/pep-0245'
p2036
(NVPEP 245 -- Python Interface Syntax
Ntp2037
sS'dev/peps/pep-0365'
p2038
(NVPEP 365 -- Adding the pkg_resources module
Ntp2039
sS'community/pycon/input_err'
p2040
(NS'PyCon Registration - Input Errors'
Ntp2041
sS'dev/peps/pep-0248'
p2042
(NVPEP 248 -- Python Database API Specification v1.0
Ntp2043
sS'dev/peps/pep-0249'
p2044
(NVPEP 249 -- Python Database API Specification v2.0
Ntp2045
sS'dev/peps/pep-0361'
p2046
(NVPEP 361 -- Python 2.6 and 3.0 Release Schedule
Ntp2047
sS'dev/peps/pep-0360'
p2048
(NVPEP 360 -- Externally Maintained Packages
Ntp2049
sS'dev/peps/pep-0363'
p2050
(NVPEP 363 -- Syntax For Dynamic Attribute Access
Ntp2051
sS'dev/peps/pep-0362'
p2052
(NVPEP 362 -- Function Signature Object
Ntp2053
sS'dev/summary/2003-12-01_2003-12-31'
p2054
(NS'python-dev Summary for 2003-12-01 through 2003-12-31'
Ntp2055
sS'community/sigs/retired/gui-sig'
p2056
(NS'SIG on Graphical User Interfaces for Python'
g747
tp2057
sS'psf/records/board/treasurer'
p2058
(NS'Python Software Foundation Treasurer Reports'
Ntp2059
sS'download/releases/2.0.1/press'
p2060
(NS'Python 2.1 Press Release'
g1497
tp2061
sS'dev/peps/pep-0020'
p2062
(NVPEP 20 -- The Zen of Python
Ntp2063
sS'community/sigs/current/email-sig/status'
p2064
(NS'email SIG: Status'
S'Status'
p2065
tp2066
sS'download/releases/2.4.4/rpms'
p2067
(NS'Linux RPMs for Python 2.4.4'
Ntp2068
sS'dev/peps/pep-0328'
p2069
(NVPEP 328 -- Imports: Multi-Line and Absolute/Relative
Ntp2070
sS'psf/records/board/minutes/2005-05-10'
p2071
(NS'Python Software Foundation: Minutes of Board of Directors\n Meeting (May 10, 2005)'
Ntp2072
sS'dev/peps/pep-3141'
p2073
(NVPEP 3141 -- A Type Hierarchy for Numbers
Ntp2074
sS'download/releases/2.3.1/rpms'
p2075
(NS'Linux RPMs for Python 2.3.1'
g488
tp2076
sS'psf/records/board/minutes/2008-05-12'
p2077
(NS'2008-05-12 PSF Board Meeting Minutes'
Ntp2078
sS'community/sigs/current/image-sig/t1lib'
p2079
(NS't1python - A Type1 Font Renderer for Python'
Ntp2080
sS'psf/records/board/minutes/2002-07-16'
p2081
(NS'Python Software Foundation: Minutes of Board of Directors\n Meeting (July 16, 2002)'
Ntp2082
sS'psf/records/board/minutes/2002-04-09'
p2083
(NS'Python Software Foundation: Minutes of Board of Directors\n Meeting (Apr. 9, 2002)'
Ntp2084
sS'community/sigs/current/c++-sig'
p2085
(NS'SIG for development of Python/C++ integration'
S'C++ SIG'
p2086
tp2087
sS'psf/press-release/pr20040209'
p2088
(NS'Python Software Foundation: Press Release 9-Feb-2004'
Ntp2089
sS'download/releases/2.4/license'
p2090
(NS'Python 2.4 license'
g1260
tp2091
sS'psf/press-release'
p2092
(NS'Python Software Foundation Press Releases'
S'Press Releases'
p2093
tp2094
sS'psf/records/board/minutes/2004-11-09'
p2095
(NS'Python Software Foundation: Minutes of Board of Directors Meeting (November 9, 2004)'
Ntp2096
sS'doc/topics/database'
p2097
((((i__main__
Link
(dp2098
g19
S'/dev/peps/pep-0249.html/'
p2099
sg21
S'DB-API spec v2.0'
p2100
sg23
I00
sg24
Nsb(tt((i__main__
Link
(dp2101
g19
S'/dev/peps/pep-0248.html/'
p2102
sg21
S'DB-API spec v1.0'
p2103
sg23
I00
sg24
Nsb(tt((i__main__
Link
(dp2104
g19
S'/doc/topics/database/modules/'
p2105
sg21
S'Database Modules'
p2106
sg23
I00
sg24
Nsb(tt((i__main__
Link
(dp2107
g19
S'/doc/topics/database/docs/'
p2108
sg21
g1098
sg23
I00
sg24
Nsb(tt((i__main__
Link
(dp2109
g19
S'/doc/topics/database/other-db/'
p2110
sg21
g413
sg23
I00
sg24
Nsb(tt((i__main__
Link
(dp2111
g19
S'/doc/topics/database/persistence/'
p2112
sg21
S'Persistence'
p2113
sg23
I00
sg24
Nsb(tt((i__main__
Link
(dp2114
g19
S'/doc/topics/database/books/'
p2115
sg21
g1476
sg23
I00
sg24
Nsb(tt((i__main__
Link
(dp2116
g19
S'/community/sig/current/db-sig/'
p2117
sg21
S'Database SIG'
p2118
sg23
I00
sg24
Nsb(tttS'Database Topic Guide'
Ntp2119
sS'download/releases/2.2/license'
p2120
(NS'Python 2.2 license'
g1325
tp2121
sS'community/sigs/retired/locator-sig/mission'
p2122
(NS'Mission'
g542
tp2123
sS'about/success/strakt'
p2124
(NS'Python Success Stories'
Ntp2125
sS'dev/summary/2004-12-01_2004-12-15'
p2126
(NS'python-dev Summary for 2004-12-01 through 2004-12-15'
Ntp2127
sS'download/windows'
p2128
(NS'Python for Windows (and DOS)'
g172
tp2129
sS'psf/records/board/minutes/2006-09-18'
p2130
(NS'Python Software Foundation Board Meeting Minutes 2006-09-18'
Ntp2131
sS'doc/2.5.2'
p2132
((((i__main__
Link
(dp2133
g19
S'http://docs.python.org/'
p2134
sg21
S'Current Docs'
p2135
sg23
I00
sg24
Nsb(tt((i__main__
Link
(dp2136
g19
S'http://wiki.python.org/moin/BeginnersGuide'
p2137
sg21
S"Beginner's Guide"
p2138
sg23
I00
sg24
Nsb(tt((i__main__
Link
(dp2139
g19
S'/doc/faq/'
p2140
sg21
S'FAQs'
p2141
sg23
I00
sg24
Nsb(tt((i__main__
Link
(dp2142
g19
S'http://wiki.python.org/moin/'
p2143
sg21
S'Wiki'
p2144
sg23
I00
sg24
Nsb(tt((i__main__
Link
(dp2145
g19
S'/doc/other/'
p2146
sg21
S'Other doc resources'
p2147
sg23
I00
sg24
Nsb(tt((i__main__
Link
(dp2148
g19
S'/dev/peps/'
p2149
sg21
S'PEP Index'
p2150
sg23
I00
sg24
Nsb(tt((i__main__
Link
(dp2151
g19
S'http://wiki.python.org/moin/PythonBooks'
p2152
sg21
S'Book list'
p2153
sg23
I00
sg24
Nsb(tt((i__main__
Link
(dp2154
g19
S'/doc/topics/'
p2155
sg21
S'Topic guides'
p2156
sg23
I00
sg24
Nsb(tt((i__main__
Link
(dp2157
g19
S'/doc/newstyle/'
p2158
sg21
S'New-style classes'
p2159
sg23
I00
sg24
Nsb(tt((i__main__
Link
(dp2160
g19
S'http://docs.python.org/library/re.html'
p2161
sg21
S'Regular expressions'
p2162
sg23
I00
sg24
Nsb(tttS'Python 2.5.2 Documentation'
Ntp2163
sS'download/releases/2.4.1/rpms'
p2164
(NS'Python 2.4.1 - Linux RPMs'
g1726
tp2165
sS'download/releases/2.1.2/license'
p2166
(NS'Python 2.1.2 license'
S'License'
p2167
tp2168
sS'psf/records/members/2004-03-25'
p2169
(NS'Minutes of the PSF Member Meeting at PyConDC 2004'
Ntp2170
sS'download/releases/2.2.3/rpms'
p2171
(NS'Linux RPMs for Python 2.2.3'
g1621
tp2172
sS'about/success/siena'
p2173
(NS'Python Success Stories'
Ntp2174
sS'community/pycon/register-onsite'
p2175
(NS'PyCon Registration Form'
Ntp2176
sS'community/sigs/current/doc-sig/status'
p2177
(NS'Documentation Special Interest Group'
g1029
tp2178
sS'dev/peps/pep-3127'
p2179
(NVPEP 3127 -- Integer Literal Support and Syntax
Ntp2180
sS'dev/summary/2003-06-01_2003-06-30'
p2181
(NS'python-dev Summary for 2003-06-01 through 2003-06-30'
Ntp2182
sS'psf/records/board/minutes/2003-02-11'
p2183
(NS'Python Software Foundation: Minutes of Board of Directors\n Meeting (February 11, 2003)'
Ntp2184
sS'dev/summary/2003-09-01_2003-09-15'
p2185
(NS'python-dev Summary for 2003-09-01 through 2003-09-15'
Ntp2186
sS'community/sigs/retired/pattern-sig'
p2187
((((i__main__
Link
(dp2188
g19
S'/community/sigs/retired/pattern-sig/mission/'
p2189
sg21
g93
sg23
I00
sg24
Nsb(tttS'SIG for Idioms, Patterns, and Frameworks in Python'
g754
tp2190
sS'dev/summary/2005-02-01_2005-02-14'
p2191
(NS'python-dev Summary for 2005-02-01 through 2005-02-14'
Ntp2192
sS'community/sigs/current/distutils-sig/design'
p2193
(NS'Python Distutils-SIG: Design Proposal'
Ntp2194
sS'dev/peps/pep-3001'
p2195
(NVPEP 3001 -- Procedure for reviewing and improving standard library modules
Ntp2196
sS'dev/peps/pep-3000'
p2197
(NVPEP 3000 -- Python 3000
Ntp2198
sS'dev/peps/pep-3002'
p2199
(NVPEP 3002 -- Procedure for Backwards-Incompatible Changes
Ntp2200
sS'psf/records/board/minutes/2002-06-11'
p2201
(NS'Python Software Foundation: Minutes of Board of Directors\n Meeting (June 11, 2002)'
Ntp2202
sS'psf/records/incorporation'
p2203
(NS'Python Software Foundation: Articles of Incorporation'
Ntp2204
sS'community/sigs/retired/plot-sig/mission'
p2205
(NS'PLOT-SIG, a Special Interest Group on Data Plotting Solutions for Python'
S'Mission'
p2206
tp2207
sS'dev/peps/pep-0295'
p2208
(NVPEP 295 -- Interpretation of multiline string constants
Ntp2209
sS'dev/peps/pep-0294'
p2210
(NVPEP 294 -- Type Names in the types Module
Ntp2211
sS'dev/peps/pep-0297'
p2212
(NVPEP 297 -- Support for System Upgrades
Ntp2213
sS'dev/peps/pep-0296'
p2214
(NVPEP 296 -- Adding a bytes Object Type
Ntp2215
sS'dev/peps/pep-0291'
p2216
(NVPEP 291 -- Backward Compatibility for Standard Library
Ntp2217
sS'dev/peps/pep-0290'
p2218
(NVPEP 290 -- Code Migration and Modernization
Ntp2219
sS'dev/peps/pep-0293'
p2220
(NVPEP 293 -- Codec Error Handling Callbacks
Ntp2221
sS'dev/peps/pep-0292'
p2222
(NVPEP 292 -- Simpler String Substitutions
Ntp2223
sS'about/success/natsworld'
p2224
(NS'Python Success Stories'
Ntp2225
sS'community/irc'
p2226
(NS'Internet Relay Chat'
g1946
tp2227
sS'dev/process'
p2228
(NS"Python's Development Process"
g612
tp2229
sS'dev/summary/2006-01-16_2006-01-31'
p2230
(Ng75
Ntp2231
sS'community/sigs/guidelines'
p2232
(NS'Python Special Interest Groups - Guidelines'
g1418
tp2233
sS'dev/summary/2003-03-16_2003-03-31'
p2234
(NS'python-dev Summary for 2003-03-16 through 2003-03-31'
Ntp2235
sS'download/releases/2.3.5/notes'
p2236
(NS'Notes'
g528
tp2237
sS'download/releases/2.3.2/rpms'
p2238
(NS'Linux RPMs for Python 2.3.2'
g460
tp2239
sS'doc/2.5/download'
p2240
((((i__main__
Link
(dp2241
g19
S'http://docs.python.org/'
p2242
sg21
S'Current Docs'
p2243
sg23
I00
sg24
Nsb(tt((i__main__
Link
(dp2244
g19
S'http://wiki.python.org/moin/BeginnersGuide'
p2245
sg21
S"Beginner's Guide"
p2246
sg23
I00
sg24
Nsb(tt((i__main__
Link
(dp2247
g19
S'/doc/faq/'
p2248
sg21
S'FAQs'
p2249
sg23
I00
sg24
Nsb(tt((i__main__
Link
(dp2250
g19
S'http://wiki.python.org/moin/'
p2251
sg21
S'Wiki'
p2252
sg23
I00
sg24
Nsb(tt((i__main__
Link
(dp2253
g19
S'/doc/other/'
p2254
sg21
S'Other doc resources'
p2255
sg23
I00
sg24
Nsb(tt((i__main__
Link
(dp2256
g19
S'/dev/peps/'
p2257
sg21
S'PEP Index'
p2258
sg23
I00
sg24
Nsb(tt((i__main__
Link
(dp2259
g19
S'http://wiki.python.org/moin/PythonBooks'
p2260
sg21
S'Book list'
p2261
sg23
I00
sg24
Nsb(tt((i__main__
Link
(dp2262
g19
S'/doc/topics/'
p2263
sg21
S'Topic guides'
p2264
sg23
I00
sg24
Nsb(tt((i__main__
Link
(dp2265
g19
S'/doc/newstyle/'
p2266
sg21
S'New-style classes'
p2267
sg23
I00
sg24
Nsb(tt((i__main__
Link
(dp2268
g19
S'http://docs.python.org/library/re.html'
p2269
sg21
S'Regular expressions'
p2270
sg23
I00
sg24
Nsb(tttS'Download Python 2.5 Documentation'
Ntp2271
sS'about/apps'
p2272
(NS'Applications for Python'
S'Applications'
tp2273
sS'dev/summary/2000-08-1'
p2274
(NS'Python-dev summary: 2000-08-01 to 2000-08-15'
Ntp2275
sS'news/archive'
p2276
(NS'News Archive'
Ntp2277
sS'contact'
p2278
(NS'Contacting Us'
Ntp2279
sS'doc/faq/gui'
p2280
(NS'GUI Programming FAQ'
g1822
tp2281
sS'download/releases/1.6/download_win'
p2282
(NS'Download Python 1.6 Windows Installer'
Ntp2283
sS'download/releases/2.2.1/descrintro'
p2284
(NS'Unifying types and classes in Python 2.2'
Ntp2285
sS'psf/records/board/minutes/2004-08-10'
p2286
(NS'Python Software Foundation: Minutes of Board of Directors\n Meeting (August 10, 2004)'
Ntp2287
sS'community/sigs/retired/plot-sig/issues'
p2288
(NS'Python Data Plotting Solutions SIG Issues'
S'Issues'
p2289
tp2290
sS'download/releases/2.3.7/bugs'
p2291
(NS'Bugs in Python 2.3.7'
g507
tp2292
sS'download/releases/2.0/license'
p2293
(NS'Python 2.0 License'
Ntp2294
sS'community/sigs/current/catalog-sig/others'
p2295
(NS'Other Catalog Systems'
g1336
tp2296
sS'psf/records/board/minutes/2004-04-13'
p2297
(NS'Python Software Foundation: Minutes of Board of Directors Meeting (April 13, 2004)'
Ntp2298
sS'doc/2.5.2/download'
p2299
((((i__main__
Link
(dp2300
g19
S'http://docs.python.org/'
p2301
sg21
S'Current Docs'
p2302
sg23
I00
sg24
Nsb(tt((i__main__
Link
(dp2303
g19
S'http://wiki.python.org/moin/BeginnersGuide'
p2304
sg21
S"Beginner's Guide"
p2305
sg23
I00
sg24
Nsb(tt((i__main__
Link
(dp2306
g19
S'/doc/faq/'
p2307
sg21
S'FAQs'
p2308
sg23
I00
sg24
Nsb(tt((i__main__
Link
(dp2309
g19
S'http://wiki.python.org/moin/'
p2310
sg21
S'Wiki'
p2311
sg23
I00
sg24
Nsb(tt((i__main__
Link
(dp2312
g19
S'/doc/other/'
p2313
sg21
S'Other doc resources'
p2314
sg23
I00
sg24
Nsb(tt((i__main__
Link
(dp2315
g19
S'/dev/peps/'
p2316
sg21
S'PEP Index'
p2317
sg23
I00
sg24
Nsb(tt((i__main__
Link
(dp2318
g19
S'http://wiki.python.org/moin/PythonBooks'
p2319
sg21
S'Book list'
p2320
sg23
I00
sg24
Nsb(tt((i__main__
Link
(dp2321
g19
S'/doc/topics/'
p2322
sg21
S'Topic guides'
p2323
sg23
I00
sg24
Nsb(tt((i__main__
Link
(dp2324
g19
S'/doc/newstyle/'
p2325
sg21
S'New-style classes'
p2326
sg23
I00
sg24
Nsb(tt((i__main__
Link
(dp2327
g19
S'http://docs.python.org/library/re.html'
p2328
sg21
S'Regular expressions'
p2329
sg23
I00
sg24
Nsb(tttS'Download Python 2.5.2 Documentation'
Ntp2330
sS'dev/summary/2003-04-01_2003-04-15'
p2331
(NS'python-dev Summary for 2003-04-01 through 2003-04-15'
Ntp2332
sS'community/sigs/retired/pythonwin-sig'
p2333
(NS'PythonWin Special Interest Group'
g760
tp2334
sS'download/releases/2.5/msi'
p2335
(NS'Using Windows Installer'
g1248
tp2336
sS'download/releases/2.4.2/bugs'
p2337
(NS'Bugs in Python 2.4.2'
g937
tp2338
sS'psf/records/board/minutes/2008-06-16'
p2339
(NS'2008-06-16 PSF Board Meeting Minutes'
Ntp2340
sS'dev/summary/2005-09-01_2005-09-15'
p2341
(NS'python-dev Summary for 2005-09-01 through 2005-09-15'
Ntp2342
sS'dev/summary/2006-09-16_2006-09-30'
p2343
(Ng75
Ntp2344
sS'psf/press-release/pr20020416'
p2345
(NS'Python Software Foundation: Press Release 10-Apr-2002'
Ntp2346
sS'news/rdf'
p2347
(NS'python.org'
Ntp2348
sS'psf/records/board/minutes/2003-01-14'
p2349
(NS'Python Software Foundation: Minutes of Board of Directors\n Meeting (January 14, 2003)'
Ntp2350
sS'psf/records/board/minutes/2003-03-11'
p2351
(NS'Python Software Foundation: Minutes of Board of Directors\n Meeting (March 11, 2003)'
Ntp2352
sS'dev/summary/2007-04-01_2007-04-15'
p2353
(Ng75
Ntp2354
sS'dev/peps/pep-0257'
p2355
(NVPEP 257 -- Docstring Conventions
Ntp2356
sS'doc/faq/es'
p2357
((((i__main__
Link
(dp2358
g19
S'/doc/faq/es/general/'
p2359
sg21
g1839
sg23
I00
sg24
Nsb(tt((i__main__
Link
(dp2360
g19
S'/doc/faq/'
p2361
sg21
S'Indice Principal de FAQs'
p2362
sg23
I00
sg24
Nsb(tt((i__main__
Link
(dp2363
g19
S'http://wiki.python.org/moin/'
p2364
sg21
S'Wiki'
p2365
sg23
I00
sg24
Nsb(tttS'Preguntas Frecuentes de Python'
Ntp2366
sS'dev/peps/pep-0208'
p2367
(NVPEP 208 -- Reworking the Coercion Model
Ntp2368
sS'dev/peps/pep-0209'
p2369
(NVPEP 209 -- Multi-dimensional Arrays
Ntp2370
sS'dev/peps/pep-0206'
p2371
(NVPEP 206 -- Python Advanced Library
Ntp2372
sS'dev/peps/pep-0207'
p2373
(NVPEP 207 -- Rich Comparisons
Ntp2374
sS'dev/summary/2006-08-01_2006-08-15'
p2375
(Ng75
Ntp2376
sS'dev/peps/pep-0205'
p2377
(NVPEP 205 -- Weak References
Ntp2378
sS'dev/peps/pep-0202'
p2379
(NVPEP 202 -- List Comprehensions
Ntp2380
sS'dev/peps/pep-0203'
p2381
(NVPEP 203 -- Augmented Assignments
Ntp2382
sS'dev/peps/pep-0200'
p2383
(NVPEP 200 -- Python 2.0 Release Schedule
Ntp2384
sS'dev/peps/pep-0201'
p2385
(NVPEP 201 -- Lockstep Iteration
Ntp2386
sS'psf/records/board/minutes/2008-02-11'
p2387
(NS'2008-02-11 PSF Board Meeting Minutes'
Ntp2388
sS'psf/press-release/pr20050309'
p2389
(NS'Python Software Foundation: Press Release 9-Mar-2005'
Ntp2390
sS'community/sigs/current/i18n-sig'
p2391
(NS'Python Internationalization-SIG'
S'i18n SIG'
p2392
tp2393
sS'about/success/wingide'
p2394
(NS'Python Success Stories'
Ntp2395
sS'download/releases/2.4.2/rpms'
p2396
(NS'Linux RPMs for Python 2.4.2'
g946
tp2397
sS'doc/2.5'
p2398
((((i__main__
Link
(dp2399
g19
S'http://docs.python.org/'
p2400
sg21
S'Current Docs'
p2401
sg23
I00
sg24
Nsb(tt((i__main__
Link
(dp2402
g19
S'http://wiki.python.org/moin/BeginnersGuide'
p2403
sg21
S"Beginner's Guide"
p2404
sg23
I00
sg24
Nsb(tt((i__main__
Link
(dp2405
g19
S'/doc/faq/'
p2406
sg21
S'FAQs'
p2407
sg23
I00
sg24
Nsb(tt((i__main__
Link
(dp2408
g19
S'http://wiki.python.org/moin/'
p2409
sg21
S'Wiki'
p2410
sg23
I00
sg24
Nsb(tt((i__main__
Link
(dp2411
g19
S'/doc/other/'
p2412
sg21
S'Other doc resources'
p2413
sg23
I00
sg24
Nsb(tt((i__main__
Link
(dp2414
g19
S'/dev/peps/'
p2415
sg21
S'PEP Index'
p2416
sg23
I00
sg24
Nsb(tt((i__main__
Link
(dp2417
g19
S'http://wiki.python.org/moin/PythonBooks'
p2418
sg21
S'Book list'
p2419
sg23
I00
sg24
Nsb(tt((i__main__
Link
(dp2420
g19
S'/doc/topics/'
p2421
sg21
S'Topic guides'
p2422
sg23
I00
sg24
Nsb(tt((i__main__
Link
(dp2423
g19
S'/doc/newstyle/'
p2424
sg21
S'New-style classes'
p2425
sg23
I00
sg24
Nsb(tt((i__main__
Link
(dp2426
g19
S'http://docs.python.org/library/re.html'
p2427
sg21
S'Regular expressions'
p2428
sg23
I00
sg24
Nsb(tttS'Python 2.5 Documentation'
Ntp2429
sS'community/sigs/current/db-sig/status'
p2430
(NS'Python Tabular Databases SIG: Status'
g1441
tp2431
sS'psf/press-release/pr20031219'
p2432
(NS'Python Software Foundation: Press Release 19-Dec-2003'
Ntp2433
sS'doc/essays'
p2434
((((i__main__
Link
(dp2435
g19
S'http://docs.python.org'
p2436
sg21
S'Current Docs'
p2437
sg23
I00
sg24
Nsb(tt((i__main__
Link
(dp2438
g19
S'http://wiki.python.org/moin/BeginnersGuide'
p2439
sg21
S"Beginner's Guide"
p2440
sg23
I00
sg24
Nsb(tt((i__main__
Link
(dp2441
g19
S'/doc/essays/faq/'
p2442
sg21
S'FAQs'
p2443
sg23
I00
sg24
Nsb(tt((i__main__
Link
(dp2444
g19
S'/doc/essays/intros/'
p2445
sg21
S'Introductions'
p2446
sg23
I00
sg24
Nsb(tt((i__main__
Link
(dp2447
g19
S'http://wiki.python.org/moin'
p2448
sg21
S'Wiki'
p2449
sg23
I00
sg24
Nsb(tt((i__main__
Link
(dp2450
g19
S'/doc/essays/other/'
p2451
sg21
S'Other doc resources'
p2452
sg23
I00
sg24
Nsb(tt((i__main__
Link
(dp2453
g19
S'/doc/essays/peps/'
p2454
sg21
S'PEP Index'
p2455
sg23
I00
sg24
Nsb(tt((i__main__
Link
(dp2456
g19
S'/doc/essays/nonenglish/'
p2457
sg21
S'Non-English docs'
p2458
sg23
I00
sg24
Nsb(tt((i__main__
Link
(dp2459
g19
S'/doc/essays/editors/'
p2460
sg21
S'Editors'
p2461
sg23
I00
sg24
Nsb(tt((i__main__
Link
(dp2462
g19
S'http://wiki.python.org/moin/PythonBooks'
p2463
sg21
S'Book list'
p2464
sg23
I00
sg24
Nsb(tt((i__main__
Link
(dp2465
g19
S'/doc/essays/topics/'
p2466
sg21
S'Topic guides'
p2467
sg23
I00
sg24
Nsb(tt((i__main__
Link
(dp2468
g19
S'/doc/essays/newstyle/'
p2469
sg21
S'New-style classes'
p2470
sg23
I00
sg24
Nsb(tt((i__main__
Link
(dp2471
g19
S'http://docs.python.org/library/re.html'
p2472
sg21
S'Regular expressions'
p2473
sg23
I00
sg24
Nsb(tt((i__main__
Link
(dp2474
g19
S'http://wiki.python.org/moin/DatabaseProgramming/'
p2475
sg21
S'Databases'
p2476
sg23
I00
sg24
Nsb(tt((i__main__
Link
(dp2477
g19
S'http://wiki.python.org/moin/Audio'
p2478
sg21
S'Audio Recordings'
p2479
sg23
I00
sg24
Nsb(tttS'Python Documentation Index'
Ntp2480
sS'psf'
p2481
((((i__main__
Link
(dp2482
g19
S'/psf/about/'
p2483
sg21
g1554
sg23
I00
sg24
S'About the Python Software Foundation'
p2484
sb(tt((i__main__
Link
(dp2485
g19
S'/psf/summary/'
p2486
sg21
g1484
sg23
I00
sg24
S'Executive Summary'
p2487
sb(tt((i__main__
Link
(dp2488
g19
S'/psf/mission/'
p2489
sg21
g85
sg23
I00
sg24
Nsb(tt((i__main__
Link
(dp2490
g19
S'/psf/donations/'
p2491
sg21
g1404
sg23
I00
sg24
Nsb(tt((i__main__
Link
(dp2492
g19
S'/psf/volunteer/'
p2493
sg21
g583
sg23
I00
sg24
Nsb(tt((i__main__
Link
(dp2494
g19
S'/psf/membership/'
p2495
sg21
S'Membership FAQ'
p2496
sg23
I00
sg24
Nsb(tt((i__main__
Link
(dp2497
g19
S'/psf/sponsorship/'
p2498
sg21
g96
sg23
I00
sg24
Nsb(tt((i__main__
Link
(dp2499
g19
S'/psf/members/'
p2500
sg21
S'Membership Roster'
p2501
sg23
I00
sg24
Nsb(tt((i__main__
Link
(dp2502
g19
S'/psf/records/'
p2503
sg21
S'Public Records'
p2504
sg23
I00
sg24
Nsb(tt((i__main__
Link
(dp2505
g19
S'/psf/committees/'
p2506
sg21
g1434
sg23
I00
sg24
Nsb(tt((i__main__
Link
(dp2507
g19
S'/psf/reports/'
p2508
sg21
S'Miscellaneous Reports'
p2509
sg23
I00
sg24
Nsb(tt((i__main__
Link
(dp2510
g19
S'/psf/bylaws/'
p2511
sg21
S'Bylaws'
p2512
sg23
I00
sg24
Nsb(tt((i__main__
Link
(dp2513
g19
S'/psf/trademarks/'
p2514
sg21
g407
sg23
I00
sg24
Nsb(tt((i__main__
Link
(dp2515
g19
S'/psf/grants/'
p2516
sg21
g1793
sg23
I00
sg24
Nsb(tt((i__main__
Link
(dp2517
g19
S'/psf/cooperations/'
p2518
sg21
g195
sg23
I00
sg24
Nsb(tt((i__main__
Link
(dp2519
g19
S'http://wiki.python.org/moin/PythonSoftwareFoundation'
p2520
sg21
S'PSF Wiki'
p2521
sg23
I00
sg24
Nsb(tt((i__main__
Link
(dp2522
g19
S'http://pyfound.blogspot.com'
p2523
sg21
S'PSF Weblog'
p2524
sg23
I00
sg24
Nsb(tt((i__main__
Link
(dp2525
g19
S'/psf/weblog-policy/'
p2526
sg21
S'Weblog Policy'
p2527
sg23
I00
sg24
Nsb(tt((i__main__
Link
(dp2528
g19
S'/psf/press-release/'
p2529
sg21
g2093
sg23
I00
sg24
Nsb(tt((i__main__
Link
(dp2530
g19
S'/psf/forms/'
p2531
sg21
g1592
sg23
I00
sg24
Nsb(tt((i__main__
Link
(dp2532
g19
S'/psf/contrib/'
p2533
sg21
S'Contribution Forms'
p2534
sg23
I00
sg24
Nsb(tt((i__main__
Link
(dp2535
g19
S'/psf/license/'
p2536
sg21
S'License'
p2537
sg23
I00
sg24
Nsb(tt((i__main__
Link
(dp2538
g19
S'/psf/fraud/'
p2539
sg21
S'Suspicious Checks'
p2540
sg23
I00
sg24
Nsb(tttS'Python Software Foundation'
S'Foundation'
tp2541
sS'download/download_mac'
p2542
(NS'Python on the Macintosh'
Ntp2543
sS'download/source'
p2544
(NS'Download Python Sources'
g183
tp2545
sS'dev/peps/pep-0332'
p2546
(NVPEP 332 -- Byte vectors and String/Unicode Unification
Ntp2547
sS'dev/summary/2000-07-2'
p2548
(NS'Python-dev summary: 2000-07-16 to 2000-07-31'
Ntp2549
sS'psf/records/board/minutes/2001-03-08'
p2550
(NS'Python Software Foundation: Minutes of Board of Directors Meeting (March 8, 2001)'
Ntp2551
sS'dev/peps/pep-0331'
p2552
(NVPEP 331 -- Locale-Independent Float/String Conversions
Ntp2553
sS'psf/records/board/minutes/2005-03-24'
p2554
(NS'Python Software Foundation: Minutes of Board of Directors\n Meeting (March 25, 2005)'
Ntp2555
sS'dev/peps/pep-0337'
p2556
(NVPEP 337 -- Logging Usage in the Standard Library
Ntp2557
sS'dev/peps/pep-0334'
p2558
(NVPEP 334 -- Simple Coroutines via SuspendIteration
Ntp2559
sS'dev/peps/pep-0335'
p2560
(NVPEP 335 -- Overloadable Boolean Operators
Ntp2561
sS'download/releases/2.2.1/license'
p2562
(NS'Python 2.2.1 license'
g1381
tp2563
sS'dev/peps/pep-0339'
p2564
(NVPEP 339 -- Design of the CPython Compiler
Ntp2565
sS'psf/records/board/minutes/2001-03-05'
p2566
(NS'Python Software Foundation: Minutes of the 1st Meeting of Board of Directors'
Ntp2567
sS'dev/peps/pep-0355'
p2568
(NVPEP 355 -- Path - Object oriented filesystem paths
Ntp2569
sS'dev/summary/2002-11-16_2002-11-30'
p2570
(NS'python-dev Summary, 2002-11-16 through 2002-11-30'
Ntp2571
sS'community/sigs/current/email-sig'
p2572
((((i__main__
Link
(dp2573
g19
S'/community/sigs/current/email-sig/status/'
p2574
sg21
g2065
sg23
I00
sg24
Nsb(tt((i__main__
Link
(dp2575
g19
S'http://mail.python.org/mailman/listinfo/email-sig'
p2576
sg21
S'Subscribe'
p2577
sg23
I00
sg24
Nsb(tt((i__main__
Link
(dp2578
g19
S'http://mail.python.org/pipermail/email-sig/'
p2579
sg21
S'Archives'
p2580
sg23
I00
sg24
Nsb(tt((i__main__
Link
(dp2581
g19
S'/community/sigs/current/email-sig/docs/'
p2582
sg21
S'Docs for 3.0'
p2583
sg23
I00
sg24
Nsb(tt((i__main__
Link
(dp2584
g19
S'http://www.python.org/doc/current/lib/module-email.html'
p2585
sg21
S'Docs for 2.5.6'
p2586
sg23
I00
sg24
Nsb(tt((i__main__
Link
(dp2587
g19
S'http://pypi.python.org/packages/source/e/email/email-4.0a2.tar.gz'
p2588
sg21
S'Download 4.0a2'
p2589
sg23
I00
sg24
Nsb(tt((i__main__
Link
(dp2590
g19
S'/ftp/python/contrib/email-3.0.tar.gz/'
p2591
sg21
S'Download 3.0'
p2592
sg23
I00
sg24
Nsb(tt((i__main__
Link
(dp2593
g19
S'/ftp/python/contrib/email-2.5.6.tar.gz/'
p2594
sg21
S'Download 2.5.6'
p2595
sg23
I00
sg24
Nsb(tttS'email package SIG'
S'Email SIG'
p2596
tp2597
sS'psf/records/board/minutes/2007-02-25'
p2598
(NS'2007-02-25 PSF Board Meeting Minutes'
Ntp2599
sS'download/releases/2.3.4/license'
p2600
(NS'Python 2.3.4 license'
g521
tp2601
sS'birmingham'
p2602
((((i__main__
Link
(dp2603
g3
S'/birmingham/gettingstarted/'
p2604
sg5
S'Getting Started'
p2605
sg7
I00
sg8
Nsb(tt((i__main__
Link
(dp2606
g3
S'/birmingham/apps/'
p2607
sg5
S'Applications'
p2608
sg7
I00
sg8
Nsb(tt((i__main__
Link
(dp2609
g3
S'/birmingham/success/'
p2610
sg5
S'Success Stories'
p2611
sg7
I00
sg8
Nsb(tt((i__main__
Link
(dp2612
g3
S'/birmingham/quotes/'
p2613
sg5
S'Quotes'
p2614
sg7
I00
sg8
Nsb(tt((i__main__
Link
(dp2615
g3
S'/birmingham/website/'
p2616
sg5
S'Website'
p2617
sg7
I00
sg8
Nsb(tt((i__main__
Link
(dp2618
g3
S'/birmingham/help/'
p2619
sg5
S'Help'
p2620
sg7
I00
sg8
Nsb(tttS'About'
Ntp2621
sS'psf/records/board/minutes/2003-11-11'
p2622
(NS'Python Software Foundation: Minutes of Board of Directors\n Meeting (November 11, 2003)'
Ntp2623
sS'community/sigs/retired/do-sig'
p2624
((((i__main__
Link
(dp2625
g19
S'/community/sigs/retired/do-sig/issues/'
p2626
sg21
g1114
sg23
I00
sg24
Nsb(tttS'DO-SIG - Python Distributed Objects Special Interest Group'
g721
tp2627
sS'about/success/superleague'
p2628
(NS'Python Success Stories'
Ntp2629
sS'dev/summary/2005-08-16_2005-08-31'
p2630
(NS'python-dev Summary for 2005-08-16 through 2005-08-31'
Ntp2631
sS'psf/bylaws'
p2632
(NS'Python Software Foundation: Bylaws of The Python Software Foundation'
g2512
tp2633
sS'psf/records/board/minutes/2007-05-14'
p2634
(NS'2007-05-14 PSF Board Meeting Minutes'
Ntp2635
sS'psf/records/board/minutes/2006-03-13'
p2636
(NS'Python Software Foundation Board Meeting Minutes 2006-03-13'
Ntp2637
sS'dev/summary/2004-09-01_2004-09-15'
p2638
(NS'python-dev Summary for 2004-09-01 through 2004-09-15'
Ntp2639
sS'psf/records/board/minutes/2005-01-11'
p2640
(NS'Python Software Foundation: Minutes of Board of Directors\n Meeting (January 11, 2005)'
Ntp2641
sS'dev/peps/pep-0333'
p2642
(NVPEP 333 -- Python Web Server Gateway Interface v1.0
Ntp2643
sS'download/releases/1.6.1/license_faq'
p2644
(NS'Python 1.6 License FAQ'
S'License FAQ'
p2645
tp2646
sS'dev/summary/2000-07-1'
p2647
(NS'Python-dev summary: 2000-07-01 to 2000-07-15'
Ntp2648
sS'psf/contrib/contrib-form-jython'
p2649
(NS'PSF Contributor Agreement for Jython'
Ntp2650
sS'psf/records/board/minutes/2003-09-09'
p2651
(NS'Python Software Foundation: Minutes of Board of Directors\n Meeting (September 9, 2003)'
Ntp2652
sS'doc/faq/it/extending'
p2653
(NS'FAQ Estendere/Includere Python'
Ntp2654
sS'about/success/mmtk'
p2655
(NS'Python Success Stories'
Ntp2656
sS'dev/peps/pep-3128'
p2657
(NVPEP 3128 -- BList: A Faster List-like Type
Ntp2658
sS'dev/peps/pep-3129'
p2659
(NVPEP 3129 -- Class Decorators
Ntp2660
sS'dev/peps/pep-3126'
p2661
(NVPEP 3126 -- Remove Implicit String Concatenation
Ntp2662
sS'dev/peps/pep-0336'
p2663
(NVPEP 336 -- Make None Callable
Ntp2664
sS'dev/peps/pep-3124'
p2665
(NVPEP 3124 -- Overloading, Generic Functions, Interfaces, and Adaptation
Ntp2666
sS'dev/peps/pep-3125'
p2667
(NVPEP 3125 -- Remove Backslash Continuation
Ntp2668
sS'doc/essays/comparisons'
p2669
(NS'Comparing Python to Other Languages'
Ntp2670
sS'dev/peps/pep-3123'
p2671
(NVPEP 3123 -- Making PyObject_HEAD conform to standard C
Ntp2672
sS'dev/peps/pep-3120'
p2673
(NVPEP 3120 -- Using UTF-8 as the default source encoding
Ntp2674
sS'dev/peps/pep-3121'
p2675
(NVPEP 3121 -- Extension Module Initialization and Finalization
Ntp2676
sS'doc/topics/database/persistence'
p2677
(NS'Other Persistent Storage Modules'
g2113
tp2678
sS'download/releases/2.2.2/license'
p2679
(NS'Python 2.2.2 license'
g1365
tp2680
sS'community/sigs/current'
p2681
((((i__main__
Link
(dp2682
g713
S'/community/sigs/current/c++-sig/'
p2683
sg715
g2086
sg717
I00
sg718
Nsb(tt((i__main__
Link
(dp2684
g713
S'/community/sigs/current/catalog-sig/'
p2685
sg715
g1340
sg717
I00
sg718
Nsb(tt((i__main__
Link
(dp2686
g713
S'/community/sigs/current/db-sig/'
p2687
sg715
g1442
sg717
I00
sg718
Nsb(tt((i__main__
Link
(dp2688
g713
S'/community/sigs/current/distutils-sig/'
p2689
sg715
g315
sg717
I00
sg718
Nsb(tt((i__main__
Link
(dp2690
g713
S'/community/sigs/current/doc-sig/'
p2691
sg715
g1034
sg717
I00
sg718
Nsb(tt((i__main__
Link
(dp2692
g713
S'/community/sigs/current/edu-sig/'
p2693
sg715
g401
sg717
I00
sg718
Nsb(tt((i__main__
Link
(dp2694
g713
S'/community/sigs/current/email-sig/'
p2695
sg715
g2596
sg717
I00
sg718
Nsb(tt((i__main__
Link
(dp2696
g713
S'/community/sigs/current/i18n-sig/'
p2697
sg715
g2392
sg717
I00
sg718
Nsb(tt((i__main__
Link
(dp2698
g713
S'/community/sigs/current/image-sig/'
p2699
sg715
g259
sg717
I00
sg718
Nsb(tt((i__main__
Link
(dp2700
g713
S'/community/sigs/current/meta-sig/'
p2701
sg715
g1680
sg717
I00
sg718
Nsb(tt((i__main__
Link
(dp2702
g713
S'/community/sigs/current/pythonmac-sig/'
p2703
sg715
g227
sg717
I00
sg718
Nsb(tt((i__main__
Link
(dp2704
g713
S'/community/sigs/current/web-sig/'
p2705
sg715
g1207
sg717
I00
sg718
Nsb(tt((i__main__
Link
(dp2706
g713
S'/community/sigs/current/xml-sig/'
p2707
sg715
S'XML'
p2708
sg717
I00
sg718
Nsb(tttS'Python Special Interest Groups'
g1424
tp2709
sS'psf/records/board/minutes/2007-04-09'
p2710
(NS'2007-04-09 PSF Board Meeting Minutes'
Ntp2711
sS'download/releases/2.0.1/license'
p2712
(NS'Python 2.0.1 license'
g1500
tp2713
sS'download/releases/2.5.2/license'
p2714
(NS'Python 2.5 license'
g298
tp2715
sS'about/success/suzanne'
p2716
(NS'Python Success Stories'
Ntp2717
sS'community/sigs/retired/compiler-sig'
p2718
(NS'Compiler-SIG'
g716
tp2719
sS'community/sigs/current/xml-sig'
p2720
(NS'SIG for XML Processing in Python'
g2708
tp2721
sS'dev/summary/2003-05-16_2003-05-31'
p2722
(NS'python-dev Summary for 2003-05-16 through 2003-05-31'
Ntp2723
sS'psf/press-release/pr20030729'
p2724
(NS'Python Software Foundation: Press Release 29-Jul-2003'
Ntp2725
sS'psf/records/board/minutes/2005-08-09'
p2726
(NS'Python Software Foundation: Minutes of Board of Directors Meeting (August 9, 2005)'
Ntp2727
sS'dev/peps/pep-0338'
p2728
(NVPEP 338 -- Executing modules as scripts
Ntp2729
sS'psf/records/board/minutes/2001-03-05-2'
p2730
(NS'Python Software Foundation: Minutes of Board of Directors Meeting (March 5, 2001)'
Ntp2731
sS'psf/records/board/minutes/2007-12-10'
p2732
(NS'2007-12-10 PSF Board Meeting Minutes'
Ntp2733
sS'about'
p2734
((((i__main__
Link
(dp2735
g3
S'/about/accomodation/'
p2736
sg5
S'Acommodation'
p2737
sg7
I00
sg8
Nsb(tt((i__main__
Link
(dp2738
g3
S'/about/birmingham/'
p2739
sg5
S'Birmingham'
p2740
sg7
I00
sg8
Nsb(tt((i__main__
Link
(dp2741
g3
S'/about/eatingout/'
p2742
sg5
S'Eating Out'
p2743
sg7
I00
sg8
Nsb(tt((i__main__
Link
(dp2744
g3
S'/about/venue/'
p2745
sg5
S'The Venue'
p2746
sg7
I00
sg8
Nsb(tt((i__main__
Link
(dp2747
g3
S'/about/travel/'
p2748
sg5
S'Travel'
p2749
sg7
I00
sg8
Nsb(tt((i__main__
Link
(dp2750
g3
S'/about/contacts/'
p2751
sg5
S'Contacts'
p2752
sg7
I00
sg8
Nsb(tttS'About'
g6
tp2753
sS'about/success/carmanah'
p2754
(NS'Python Success Stories'
Ntp2755
sS'community/sigs/current/distutils-sig/doc/tasks'
p2756
(NS'Python Distutils-SIG: Tasks and Division of Labour'
Ntp2757
sS'community/awards'
p2758
((((i__main__
Link
(dp2759
g19
S'/community/awards/psf-awards/'
p2760
sg21
g410
sg23
I00
sg24
Nsb(tt((i__main__
Link
(dp2761
g19
S'/community/awards/frank-willison/'
p2762
sg21
g1409
sg23
I00
sg24
Nsb(tttS'Python Community Awards'
g1935
tp2763
sS'psf/grants/report-2007-02'
p2764
(Ng75
Ntp2765
sS'psf/records/board/minutes/2004-07-13'
p2766
(NS'Python Software Foundation: Minutes of Board of Directors\n Meeting (July 13, 2004)'
Ntp2767
sS'psf/records/board/minutes'
p2768
(NS'Python Software Foundation Board Meeting Minutes'
Ntp2769
sS'about/success/forecastwatch'
p2770
(NS'Python Success Stories'
Ntp2771
sS'download/releases/2.5.2/bugs'
p2772
(NS'Bugs in Python 2.5.2c1'
g295
tp2773
sS'dev/pydotorg/website'
p2774
(NS'Python.org Website Maintenance'
g695
tp2775
sS'search/search_news'
p2776
(NS'Search Python Newsgroup'
Ntp2777
sS'community/sigs/coordination'
p2778
(NS'Python Special Interest Groups - Coordinator Resource Guide'
g1421
tp2779
sS'psf/records/board/minutes/2005-09-13'
p2780
(NS'Python Software Foundation: Minutes of Board of Directors Meeting (September 13, 2005)'
Ntp2781
sS'community/sigs/retired/persistence-sig'
p2782
(NS'SIG for Development of Persistence and Transaction Frameworks'
g731
tp2783
sS'psf/records/board/minutes/2004-01-13'
p2784
(NS'Python Software Foundation: Minutes of Board of Directors\n Meeting (Januar 13, 2004)'
Ntp2785
sS'psf/records/members'
p2786
(NS"Python Software Foundation: Members' Meetings"
S"Members' Meetings"
p2787
tp2788
sS'dev/summary/2006-11-01_2006-11-15'
p2789
(Ng75
Ntp2790
sS'dev/peps/pep-3122'
p2791
(NVPEP 3122 -- Delineation of the main module
Ntp2792
sS'download/releases/2.5/highlights'
p2793
(NS'Highlights: Python 2.5'
g1239
tp2794
sS'download/releases/1.5/whatsnew'
p2795
(NS"What's new in Python 1.5 and beyond"
Ntp2796
sS'download/releases/2.4.5/bugs'
p2797
(NS'Bugs in Python 2.4.5'
g1906
tp2798
sS'community/lists/archive'
p2799
(NS'Old Python Archives'
Ntp2800
sS'psf/press-release/pr20030531'
p2801
(NS'Python Software Foundation: Press Release 31-May-2003'
Ntp2802
sS'psf/records/members/2006-02'
p2803
(NS'Member meeting at PyCon 2006'
Ntp2804
sS'community/sigs/retired/objc-sig/status'
p2805
(NS'Objective-C SIG Status'
g30
tp2806
sS'community/sigs/retired/matrix-sig'
p2807
((((i__main__
Link
(dp2808
g19
S'/community/sigs/retired/matrix-sig/faq/'
p2809
sg21
g1832
sg23
I00
sg24
Nsb(tttS'SIG for Built-in Matrix Types in Python'
g744
tp2810
sS'dev/summary/2005-12-16_2005-12-31'
p2811
(NS'python-dev Summary for 2005-12-16 through 2005-12-31'
Ntp2812
sS'psf/records/members/2007-02-23/absentee-ballot'
p2813
(Ng75
Ntp2814
sS'download/releases/2.4.5/rpms'
p2815
(NS'Linux RPMs for Python 2.4.4'
Ntp2816
sS'psf/records/board/minutes/2005-12-13'
p2817
(NS'Python Software Foundation: Minutes of Board of Directors Meeting, December 13, 2005'
Ntp2818
sS'about/success/usa'
p2819
(NS'Python Success Stories'
Ntp2820
sS'dev/peps/pep-0260'
p2821
(NVPEP 260 -- Simplify xrange()
Ntp2822
sS'psf/records/members/2008-03-14/proxy'
p2823
(NS"Proxy Form - 2008-03-14 PSF Members' Meeting"
Ntp2824
sS'psf/grants/call-2004'
p2825
(NS'Python Software Foundation: Call for Grant Proposals 2004'
Ntp2826
sS'news/security'
p2827
(NS'Python Security Advisories'
g1882
tp2828
sS'dev/summary/2004-10-01_2004-10-15'
p2829
(NS'python-dev Summary for 2004-10-01 through 2004-10-15'
Ntp2830
sS'dev/summary/2006-01-01_2006-01-15'
p2831
(NS'python-dev Summary for 2006-01-01 through 2006-01-15'
Ntp2832
sS'dev/peps/pep-0241'
p2833
(NVPEP 241 -- Metadata for Python Software Packages
Ntp2834
sS'dev/peps/pep-0369'
p2835
(NVPEP 369 -- Post import hooks
Ntp2836
sS'dev/summary/2002-12-16_2002-12-31'
p2837
(NS'python-dev Summary for 2002-12-15 through 2002-12-31'
Ntp2838
sS'dev/summary/2003-08-01_2003-08-15'
p2839
(NS'python-dev Summary for 2003-08-01 through 2003-08-15'
Ntp2840
sS'psf/fraud'
p2841
(NS'Statement about Suspicious Checks'
g2540
tp2842
sS'community/sigs/retired/plot-sig'
p2843
((((i__main__
Link
(dp2844
g19
S'/community/sigs/retired/plot-sig/mission/'
p2845
sg21
g2206
sg23
I00
sg24
Nsb(tt((i__main__
Link
(dp2846
g19
S'/community/sigs/retired/plot-sig/issues/'
p2847
sg21
g2289
sg23
I00
sg24
Nsb(tttS'Plot-SIG - SIG on Data Plotting Solutions for Python'
g734
tp2848
sS'about/help'
p2849
(NS'Help'
S'Help'
tp2850
sS'community/sigs/current/distutils-sig/doc'
p2851
(NS'Python Distutils-SIG: Documentation'
Ntp2852
sS'dev/peps/pep-0330'
p2853
(NVPEP 330 -- Python Bytecode Verification
Ntp2854
sS'download/releases/2.2/bugs'
p2855
(NS'Known bugs in Python 2.2'
g1322
tp2856
sS'download/releases/2.3.1/license'
p2857
(NS'Python 2.3.1 license'
g485
tp2858
sS'about/success/projectpipe'
p2859
(NS'Python Success Stories'
Ntp2860
sS'dev/implementations'
p2861
(NS'Python Implementations'
g606
tp2862
sS'download/releases/2.4.1/notes'
p2863
(NS'Python 2.4.1 - Release Notes'
g1716
tp2864
sS'community/sigs/retired/getopt-sig/compare'
p2865
(NS'Comparing Option-Parsing Libraries'
g142
tp2866
sS'doc/av/howto'
p2867
((((i__main__
Link
(dp2868
g19
S'/doc/av/howto/5minutes/'
p2869
sg21
S'5-Minutes with Python'
p2870
sg23
I00
sg24
Nsb(tt((i__main__
Link
(dp2871
g19
S'/doc/av/howto/slideshows/'
p2872
sg21
S'Slideshow collections'
p2873
sg23
I00
sg24
Nsb(tt((i__main__
Link
(dp2874
g19
S'/doc/av/howto/howto/'
p2875
sg21
S'How to create screencasts'
p2876
sg23
I00
sg24
Nsb(tttS'How to Create Screencasts'
g1857
tp2877
sS'psf/license'
p2878
(NS'Python License'
g2537
tp2879
sS'doc/topics/database/modules'
p2880
(NS'Python Database Modules'
g2106
tp2881
sS'psf/records/members/2007-02-23/agenda'
p2882
(NS"Agenda of 2007 PSF Members' Meeting, 23 February 2007"
Ntp2883
sS'dev/summary/2005-04-01_2005-04-15'
p2884
(NS'python-dev Summary for 2005-04-01 through 2005-04-15'
Ntp2885
sS'about/success/tttech'
p2886
(NS'Python Success Stories'
Ntp2887
sS'dev/peps/pep-0364'
p2888
(NVPEP 364 -- Transitioning to the Py3K Standard Library
Ntp2889
sS'community/pycon/register-regular'
p2890
(NS'PyCon Registration Form'
Ntp2891
sS'psf/records/board/minutes/2002-02-07'
p2892
(NS'Python Software Foundation: Minutes of Board of Directors\n Meeting (Feb. 7, 2002)'
Ntp2893
sS'dev/peps/pep-0367'
p2894
(NVPEP 367 -- New Super
Ntp2895
sS'download/releases/2.2.3/license'
p2896
(NS'Python 2.2.3 license'
g1618
tp2897
sS'dev/peps/pep-0366'
p2898
(NVPEP 366 -- Main module explicit relative imports
Ntp2899
sS'download/releases/2.3/highlights'
p2900
(NS"What's new in Python 2.3"
g1305
tp2901
sS'dev/summary/2002-09-16-2002-09-30'
p2902
(NS'python-dev Summary for 2002-09-16 through 2002-09-30'
Ntp2903
sS'download/download_windows'
p2904
(NS'Python for Windows (and DOS)'
Ntp2905
sS'psf/press-release/pr20031003'
p2906
(NS'Python Software Foundation: Press Release 3-Oct-2003'
Ntp2907
sS'dev/peps/pep-0277'
p2908
(NVPEP 277 -- Unicode file name support for Windows NT
Ntp2909
sS'dev/peps/pep-0276'
p2910
(NVPEP 276 -- Simple Iterator for ints
Ntp2911
sS'dev/peps/pep-0275'
p2912
(NVPEP 0275 -- Switching on Multiple Values
Ntp2913
sS'psf/donations/paypal'
p2914
(NS'Python Software Foundation: Donate via PayPal'
Ntp2915
sS'dev/peps/pep-0273'
p2916
(NVPEP 273 -- Import Modules from Zip Archives
Ntp2917
sS'dev/peps/pep-0272'
p2918
(NVPEP 272 -- API for Block Encryption Algorithms v1.0
Ntp2919
sS'dev/peps/pep-0271'
p2920
(NVPEP 271 -- Prefixing sys.path by command line option
Ntp2921
sS'dev/peps/pep-0270'
p2922
(NVPEP 270 -- uniq method for list objects
Ntp2923
sS'dev/peps/pep-0374'
p2924
(NVPEP 374 -- Migrating from svn to a distributed VCS
Ntp2925
sS'psf/records/board/minutes/2006-08-14'
p2926
(NS'Python Software Foundation Board Meeting Minutes 2006-08-14'
Ntp2927
sS'about/success/honeywell'
p2928
(NS'Python Success Stories'
Ntp2929
sS'dev/peps/pep-0373'
p2930
(NVPEP 373 -- Python 2.7 Release Schedule
Ntp2931
sS'dev/peps/pep-0370'
p2932
(NVPEP 370 -- Per user site-packages directory
Ntp2933
sS'dev/peps/pep-0371'
p2934
(NVPEP 371 -- Addition of the multiprocessing package to the standard library
Ntp2935
sS'dev/summary/2006-08-16_2006-08-31'
p2936
(Ng75
Ntp2937
sS'download/releases/2.0.1/fsf'
p2938
(NS'FSF statement'
Ntp2939
sS'download/releases/2.2.2/rpms'
p2940
(NS'Linux RPMs for Python 2.2.2'
g1368
tp2941
sS'download/releases/1.6'
p2942
(NS'Python 1.6'
Ntp2943
sS'psf/records/board/minutes/2006-11-13'
p2944
(NS'2006-11-13 PSF Board Meeting Minutes'
Ntp2945
sS'links'
p2946
(NS'Python Links'
Ntp2947
sS'dev/peps/pep-0247'
p2948
(NVPEP 247 -- API for Cryptographic Hash Functions
Ntp2949
sS'dev/peps/pep-0012'
p2950
(NVPEP 12 -- Sample reStructuredText PEP Template
Ntp2951
sS'dev/peps/pep-0011'
p2952
(NVPEP 11 -- Removing support for little used platforms
Ntp2953
sS'dev/peps/pep-0010'
p2954
(NVPEP 10 -- Voting Guidelines
Ntp2955
sS'community/logos'
p2956
(NS'The Python Logo'
g1952
tp2957
sS'dev/peps/pep-0222'
p2958
(NVPEP 222 -- Web Library Enhancements
Ntp2959
sS'psf/records/members/2005-03-24'
p2960
(NS'Python Software Foundation Members Meeting Minutes 2005-03-24'
Ntp2961
sS'psf/records/board'
p2962
(NS'PSF Board Records'
Ntp2963
sS'community/sigs/retired/types-sig'
p2964
((((i__main__
Link
(dp2965
g19
S'/community/sigs/retired/types-sig/status/'
p2966
sg21
g707
sg23
I00
sg24
Nsb(tt((i__main__
Link
(dp2967
g19
S'/community/sigs/retired/types-sig/interfaces/'
p2968
sg21
g985
sg23
I00
sg24
Nsb(tt((i__main__
Link
(dp2969
g19
S'/community/sigs/retired/types-sig/statictypes/'
p2970
sg21
g132
sg23
I00
sg24
Nsb(tt((i__main__
Link
(dp2971
g19
S'/community/sigs/retired/types-sig/typeclass/'
p2972
sg21
g1657
sg23
I00
sg24
Nsb(tttS'The Python type system SIG'
g739
tp2973
sS'download/releases/2.1.3/license'
p2974
(NS'Python 2.1.3 license'
g811
tp2975
sS'dev/summary/2005-03-16_2005-03-31'
p2976
(NS'python-dev Summary for 2005-03-16 through 2005-03-31'
Ntp2977
sS'psf/membership'
p2978
(NS'PSF Membership FAQ'
g2496
tp2979
sS'psf/records/board/minutes/2007-09-10'
p2980
(NS'2007-09-10 PSF Board Meeting Minutes'
Ntp2981
sS'download/releases/3.0'
p2982
(NS'Python 3.0rc3 Release'
g418
tp2983
sS'psf/records/board/minutes/2008-01-14'
p2984
(NS'2008-01-14 PSF Board Meeting Minutes'
Ntp2985
sS'psf/grants/advocacy'
p2986
(NS'PSF Advocacy Initiative'
Ntp2987
sS'download/releases/2.1/press'
p2988
(NS'Python 2.1 Press Release'
g1298
tp2989
sS'psf/reports'
p2990
(NS'Miscellaneous PSF Reports'
g2509
tp2991
sS'psf/records/board/minutes/2004-02-10'
p2992
(NS'Python Software Foundation: Minutes of Board of Directors\n Meeting (February 10, 2004)'
Ntp2993
sS'psf/records/board/minutes/2007-02-12'
p2994
(NS'2007-02-12 PSF Board Meeting Minutes'
Ntp2995
sS'download/releases/2.2.1/mac'
p2996
(NS'MacPython 2.2.1'
g1386
tp2997
sS'psf/records/board/history'
p2998
(NS'History of PSF Officers & Directors'
Ntp2999
sS'dev/summary/2004-09-16_2004-09-30'
p3000
(NS'python-dev Summary for 2004-09-16 through 2004-09-30'
Ntp3001
sS'dev/peps/pep-3111'
p3002
(NVPEP 3111 -- Simple input built-in in Python 3000
Ntp3003
sS'about/success/frequentis'
p3004
(NS'Python Success Stories'
Ntp3005
sS'about/success/loveintros'
p3006
(NS'Python Success Stories'
Ntp3007
sS'psf/records/board/minutes/2008-09-08'
p3008
(NS'2008-09-08 PSF Board Meeting Minutes'
Ntp3009
sS'psf/records/board/minutes/2004-05-11'
p3010
(NS'Python Software Foundation: Minutes of Board of Directors\n Meeting (May 11, 2004)'
Ntp3011
sS'psf/members'
p3012
(NS'PSF Membership Roster'
g2501
tp3013
sS'download/releases/2.1.1'
p3014
((((i__main__
Link
(dp3015
g19
S'/download/releases/2.1.1/NEWS.txt/'
p3016
sg21
S'Release Notes'
p3017
sg23
I00
sg24
Nsb(tt((i__main__
Link
(dp3018
g19
S'/download/releases/2.1.1/license/'
p3019
sg21
g976
sg23
I00
sg24
Nsb(tt((i__main__
Link
(dp3020
g19
S'/download/releases/2.1.1/rpms/'
p3021
sg21
g680
sg23
I00
sg24
Nsb(tt((i__main__
Link
(dp3022
g19
S'/download/releases/2.1.1/press/'
p3023
sg21
g1512
sg23
I00
sg24
Nsb(tttS'Python 2.1.1'
Ntp3024
sS'download/releases/2.1.2'
p3025
((((i__main__
Link
(dp3026
g19
S'/download/releases/2.1.2/NEWS.txt/'
p3027
sg21
S'Release Notes'
p3028
sg23
I00
sg24
Nsb(tt((i__main__
Link
(dp3029
g19
S'/download/releases/2.1.2/license/'
p3030
sg21
g2167
sg23
I00
sg24
Nsb(tt((i__main__
Link
(dp3031
g19
S'/download/releases/2.1.2/rpms/'
p3032
sg21
g1004
sg23
I00
sg24
Nsb(tttS'Python 2.1.2'
Ntp3033
sS'psf/records'
p3034
((((i__main__
Link
(dp3035
g19
S'/psf/records/board/minutes/'
p3036
sg21
S'Board Meetings'
p3037
sg23
I00
sg24
Nsb(tt((i__main__
Link
(dp3038
g19
S'/psf/records/board/resolutions/'
p3039
sg21
S'Board Resolutions'
p3040
sg23
I00
sg24
Nsb(tt((i__main__
Link
(dp3041
g19
S'/psf/records/members/'
p3042
sg21
g2787
sg23
I00
sg24
Nsb(tttS'Python Software Foundation Public Records'
g2504
tp3043
sS'psf/meetings'
p3044
((((i__main__
Link
(dp3045
g19
S'/psf/meetings/agenda/feb2006/'
p3046
sg21
S'Next Meeting'
p3047
sg23
I00
sg24
Nsb(tt((i__main__
Link
(dp3048
g19
S'/psf/meetings/agenda/'
p3049
sg21
S'Agenda'
p3050
sg23
I00
sg24
Nsb(tt((i__main__
Link
(dp3051
g19
S'/psf/meetings/minutes/'
p3052
sg21
S'Minutes'
p3053
sg23
I00
sg24
Nsb(tttS'PSF Meetings'
Ntp3054
sS'psf/records/members/2006-02-24'
p3055
(NS'Python Software Foundation Members Meeting Minutes 2006-02-24'
Ntp3056
sS'psf/records/members/2006-02/proxy-february-2006'
p3057
(NS'Appointment of Proxy for February 24, 2006 member meeting in Dallas, TX'
Ntp3058
sS'psf/reports/gsoc-2007'
p3059
(NS'PSF participation in the 2007 Google Summer of Code'
Ntp3060
sS'news/security/PSF-2005-001'
p3061
(NS'PSF-2005-001 - SimpleXMLRPCServer.py allows unrestricted traversal'
Ntp3062
sS'psf/records/board/minutes/2004-06-18'
p3063
(NS'Python Software Foundation: Minutes of Board of Directors\n Meeting (June 15, 2004)'
Ntp3064
sS'psf/records/board/minutes/2007-01-08'
p3065
(NS'2007-01-08 PSF Board Meeting Minutes'
Ntp3066
sS'dev/summary/2005-07-16_2005-07-31'
p3067
(NS'python-dev Summary for 2005-07-16 through 2005-07-31'
Ntp3068
sS'download/releases/1.6.1'
p3069
((((i__main__
Link
(dp3070
g19
S'/download/releases/1.6.1/download/'
p3071
sg21
g201
sg23
I00
sg24
Nsb(tt((i__main__
Link
(dp3072
g19
S'/download/releases/1.6.1/download_win/'
p3073
sg21
g1345
sg23
I00
sg24
Nsb(tt((i__main__
Link
(dp3074
g19
S'/download/releases/1.6.1/license_faq/'
p3075
sg21
g2645
sg23
I00
sg24
Nsb(tttS'Python 1.6.1'
g441
tp3076
sS'doc/versions'
p3077
(NS'Python Documentation by Version'
Ntp3078
sS'psf/contrib'
p3079
(NS'Contributing to the PSF'
g2534
tp3080
sS'about/gettingstarted'
p3081
(NS'Python For Beginners'
S'Getting Started'
tp3082
sS'dev/peps/pep-0212'
p3083
(NVPEP 212 -- Loop Counter Iteration
Ntp3084
sS'psf/weblog-policy'
p3085
(NS'PSF Weblog Policy'
g2527
tp3086
sS'dev/peps/pep-0160'
p3087
(NVPEP 160 -- Python 1.6 Release Schedule
Ntp3088
s.